TMS320C6x Assembler PC v7.4.18 Tue Jan 02 08:53:48 2018

Tools Copyright (c) 1996-2015 Texas Instruments Incorporated
C:\Users\Pc\AppData\Local\Temp\0378410                               PAGE    1

       1                    ;******************************************************************************
       2                    ;* TMS320C6x C/C++ Codegen                                         PC v7.4.18 *
       3                    ;* Date/Time created: Tue Jan 02 08:53:48 2018                                *
       4                    ;******************************************************************************
       5                            .compiler_opts --abi=coffabi --c64p_l1d_workaround=default --endian=little --hll_source=on --l
       6                    
       7                    ;******************************************************************************
       8                    ;* GLOBAL FILE PARAMETERS                                                     *
       9                    ;*                                                                            *
      10                    ;*   Architecture      : TMS320C671x                                          *
      11                    ;*   Optimization      : Enabled at level 2                                   *
      12                    ;*   Optimizing for    : Speed                                                *
      13                    ;*                       Based on options: -o2, no -ms                        *
      14                    ;*   Endian            : Little                                               *
      15                    ;*   Interrupt Thrshld : Disabled                                             *
      16                    ;*   Data Access Model : Far                                                  *
      17                    ;*   Pipelining        : Enabled                                              *
      18                    ;*   Speculate Loads   : Enabled with threshold = 0                           *
      19                    ;*   Memory Aliases    : Presume are aliases (pessimistic)                    *
      20                    ;*   Debug Info        : DWARF Debug                                          *
      21                    ;*                                                                            *
      22                    ;******************************************************************************
      23                    
      24                            .asg    A15, FP
      25                            .asg    B14, DP
      26                            .asg    B15, SP
      27                            .global $bss
      28                    
      29                    
      30                    $C$DW$CU        .dwtag  DW_TAG_compile_unit
      31                            .dwattr $C$DW$CU, DW_AT_name("../c6713dskinit.c")
      32                            .dwattr $C$DW$CU, DW_AT_producer("TMS320C6x C/C++ Codegen PC v7.4.18 Copyright (c) 1996-2015 T
      33                            .dwattr $C$DW$CU, DW_AT_TI_version(0x01)
      34                            .dwattr $C$DW$CU, DW_AT_comp_dir("E:\2017_Cours_TP_DSP_C6713\Workspace\2018_01_02_TP3_Goertzel
      35                    ;*****************************************************************************
      36                    ;* CINIT RECORDS                                                             *
      37                    ;*****************************************************************************
      38 00000000                   .sect   ".cinit"
      39                            .align  8
      40 00000000 00000020          .field          $C$IR_1,32
      41 00000004 0000000C-         .field          _AIC23CfgData+0,32
      42 00000008 00000000          .bits   0,32                    ; _AIC23CfgData._spcr @ 0
      43 0000000c 000000A0          .bits   160,32                  ; _AIC23CfgData._rcr @ 32
      44 00000010 000000A0          .bits   160,32                  ; _AIC23CfgData._xcr @ 64
      45 00000014 20000001          .bits   536870913,32                    ; _AIC23CfgData._srgr @ 96
      46 00000018 00000000          .bits   0,32                    ; _AIC23CfgData._mcr @ 128
      47 0000001c 00000000          .bits   0,32                    ; _AIC23CfgData._rcer @ 160
      48 00000020 00000000          .bits   0,32                    ; _AIC23CfgData._xcer @ 192
      49 00000024 00000003          .bits   3,32                    ; _AIC23CfgData._pcr @ 224
      50          00000020  $C$IR_1:        .set    32
      51                    
      52 00000028                   .sect   ".cinit"
      53                            .align  8
      54 00000028 00000028          .field          $C$IR_2,32
      55 0000002c 0000002C-         .field          _config+0,32
TMS320C6x Assembler PC v7.4.18 Tue Jan 02 08:53:48 2018

Tools Copyright (c) 1996-2015 Texas Instruments Incorporated
C:\Users\Pc\AppData\Local\Temp\0378410                               PAGE    2

      56 00000030 00000017          .bits   23,32                   ; _config._regs[0] @ 0
      57 00000034 00000017          .bits   23,32                   ; _config._regs[1] @ 32
      58 00000038 000001F9          .bits   505,32                  ; _config._regs[2] @ 64
      59 0000003c 000001F9          .bits   505,32                  ; _config._regs[3] @ 96
      60 00000040 00000011          .bits   17,32                   ; _config._regs[4] @ 128
      61 00000044 00000000          .bits   0,32                    ; _config._regs[5] @ 160
      62 00000048 00000000          .bits   0,32                    ; _config._regs[6] @ 192
      63 0000004c 00000043          .bits   67,32                   ; _config._regs[7] @ 224
      64 00000050 00000081          .bits   129,32                  ; _config._regs[8] @ 256
      65 00000054 00000001          .bits   1,32                    ; _config._regs[9] @ 288
      66          00000028  $C$IR_2:        .set    40
      67                    
      68                    
      69                    $C$DW$1 .dwtag  DW_TAG_subprogram, DW_AT_name("IRQ_map")
      70                            .dwattr $C$DW$1, DW_AT_TI_symbol_name("_IRQ_map")
      71                            .dwattr $C$DW$1, DW_AT_declaration
      72                            .dwattr $C$DW$1, DW_AT_external
      73                    $C$DW$2 .dwtag  DW_TAG_formal_parameter
      74                            .dwattr $C$DW$2, DW_AT_type(*$C$DW$T$19)
      75                    $C$DW$3 .dwtag  DW_TAG_formal_parameter
      76                            .dwattr $C$DW$3, DW_AT_type(*$C$DW$T$19)
      77                            .dwendtag $C$DW$1
      78                    
      79                    
      80                    $C$DW$4 .dwtag  DW_TAG_subprogram, DW_AT_name("DSK6713_init")
      81                            .dwattr $C$DW$4, DW_AT_TI_symbol_name("_DSK6713_init")
      82                            .dwattr $C$DW$4, DW_AT_declaration
      83                            .dwattr $C$DW$4, DW_AT_external
      84                    
      85                    $C$DW$5 .dwtag  DW_TAG_subprogram, DW_AT_name("MCBSP_start")
      86                            .dwattr $C$DW$5, DW_AT_TI_symbol_name("_MCBSP_start")
      87                            .dwattr $C$DW$5, DW_AT_declaration
      88                            .dwattr $C$DW$5, DW_AT_external
      89                    $C$DW$6 .dwtag  DW_TAG_formal_parameter
      90                            .dwattr $C$DW$6, DW_AT_type(*$C$DW$T$29)
      91                    $C$DW$7 .dwtag  DW_TAG_formal_parameter
      92                            .dwattr $C$DW$7, DW_AT_type(*$C$DW$T$19)
      93                    $C$DW$8 .dwtag  DW_TAG_formal_parameter
      94                            .dwattr $C$DW$8, DW_AT_type(*$C$DW$T$19)
      95                            .dwendtag $C$DW$5
      96                    
      97                    
      98                    $C$DW$9 .dwtag  DW_TAG_subprogram, DW_AT_name("DSK6713_AIC23_openCodec")
      99                            .dwattr $C$DW$9, DW_AT_TI_symbol_name("_DSK6713_AIC23_openCodec")
     100                            .dwattr $C$DW$9, DW_AT_type(*$C$DW$T$45)
     101                            .dwattr $C$DW$9, DW_AT_declaration
     102                            .dwattr $C$DW$9, DW_AT_external
     103                    $C$DW$10        .dwtag  DW_TAG_formal_parameter
     104                            .dwattr $C$DW$10, DW_AT_type(*$C$DW$T$10)
     105                    $C$DW$11        .dwtag  DW_TAG_formal_parameter
     106                            .dwattr $C$DW$11, DW_AT_type(*$C$DW$T$34)
     107                            .dwendtag $C$DW$9
     108                    
     109                    
     110                    $C$DW$12        .dwtag  DW_TAG_subprogram, DW_AT_name("DSK6713_AIC23_setFreq")
TMS320C6x Assembler PC v7.4.18 Tue Jan 02 08:53:48 2018

Tools Copyright (c) 1996-2015 Texas Instruments Incorporated
C:\Users\Pc\AppData\Local\Temp\0378410                               PAGE    3

     111                            .dwattr $C$DW$12, DW_AT_TI_symbol_name("_DSK6713_AIC23_setFreq")
     112                            .dwattr $C$DW$12, DW_AT_declaration
     113                            .dwattr $C$DW$12, DW_AT_external
     114                    $C$DW$13        .dwtag  DW_TAG_formal_parameter
     115                            .dwattr $C$DW$13, DW_AT_type(*$C$DW$T$45)
     116                    $C$DW$14        .dwtag  DW_TAG_formal_parameter
     117                            .dwattr $C$DW$14, DW_AT_type(*$C$DW$T$19)
     118                            .dwendtag $C$DW$12
     119                    
     120                    $C$DW$15        .dwtag  DW_TAG_variable, DW_AT_name("_IRQ_eventTable")
     121                            .dwattr $C$DW$15, DW_AT_TI_symbol_name("__IRQ_eventTable")
     122                            .dwattr $C$DW$15, DW_AT_type(*$C$DW$T$60)
     123                            .dwattr $C$DW$15, DW_AT_declaration
     124                            .dwattr $C$DW$15, DW_AT_external
     125                    $C$DW$16        .dwtag  DW_TAG_variable, DW_AT_name("DSK6713_AIC23_codecdatahandle")
     126                            .dwattr $C$DW$16, DW_AT_TI_symbol_name("_DSK6713_AIC23_codecdatahandle")
     127                            .dwattr $C$DW$16, DW_AT_type(*$C$DW$T$29)
     128                            .dwattr $C$DW$16, DW_AT_declaration
     129                            .dwattr $C$DW$16, DW_AT_external
     130                            .global _AIC_data
     131 00000000           _AIC_data:      .usect  ".far",4,4
     132                    $C$DW$17        .dwtag  DW_TAG_variable, DW_AT_name("AIC_data")
     133                            .dwattr $C$DW$17, DW_AT_TI_symbol_name("_AIC_data")
     134                            .dwattr $C$DW$17, DW_AT_location[DW_OP_addr _AIC_data]
     135                            .dwattr $C$DW$17, DW_AT_type(*$C$DW$T$25)
     136                            .dwattr $C$DW$17, DW_AT_external
     137 00000004           _CODECEventId:  .usect  ".far",4,4
     138                    $C$DW$18        .dwtag  DW_TAG_variable, DW_AT_name("CODECEventId")
     139                            .dwattr $C$DW$18, DW_AT_TI_symbol_name("_CODECEventId")
     140                            .dwattr $C$DW$18, DW_AT_type(*$C$DW$T$19)
     141                            .dwattr $C$DW$18, DW_AT_location[DW_OP_addr _CODECEventId]
     142 00000008           _poll:  .usect  ".far",4,4
     143                    $C$DW$19        .dwtag  DW_TAG_variable, DW_AT_name("poll")
     144                            .dwattr $C$DW$19, DW_AT_TI_symbol_name("_poll")
     145                            .dwattr $C$DW$19, DW_AT_type(*$C$DW$T$19)
     146                            .dwattr $C$DW$19, DW_AT_location[DW_OP_addr _poll]
     147                            .global _AIC23CfgData
     148 0000000c           _AIC23CfgData:  .usect  ".far",32,4
     149                    $C$DW$20        .dwtag  DW_TAG_variable, DW_AT_name("AIC23CfgData")
     150                            .dwattr $C$DW$20, DW_AT_TI_symbol_name("_AIC23CfgData")
     151                            .dwattr $C$DW$20, DW_AT_location[DW_OP_addr _AIC23CfgData]
     152                            .dwattr $C$DW$20, DW_AT_type(*$C$DW$T$30)
     153                            .dwattr $C$DW$20, DW_AT_external
     154                            .global _config
     155 0000002c           _config:        .usect  ".far",40,4
     156                    $C$DW$21        .dwtag  DW_TAG_variable, DW_AT_name("config")
     157                            .dwattr $C$DW$21, DW_AT_TI_symbol_name("_config")
     158                            .dwattr $C$DW$21, DW_AT_location[DW_OP_addr _config]
     159                            .dwattr $C$DW$21, DW_AT_type(*$C$DW$T$33)
     160                            .dwattr $C$DW$21, DW_AT_external
     161                            .global _hAIC23_handle
     162 00000054           _hAIC23_handle: .usect  ".far",4,4
     163                    $C$DW$22        .dwtag  DW_TAG_variable, DW_AT_name("hAIC23_handle")
     164                            .dwattr $C$DW$22, DW_AT_TI_symbol_name("_hAIC23_handle")
     165                            .dwattr $C$DW$22, DW_AT_location[DW_OP_addr _hAIC23_handle]
TMS320C6x Assembler PC v7.4.18 Tue Jan 02 08:53:48 2018

Tools Copyright (c) 1996-2015 Texas Instruments Incorporated
C:\Users\Pc\AppData\Local\Temp\0378410                               PAGE    4

     166                            .dwattr $C$DW$22, DW_AT_type(*$C$DW$T$45)
     167                            .dwattr $C$DW$22, DW_AT_external
     168                    $C$DW$23        .dwtag  DW_TAG_variable, DW_AT_name("fs")
     169                            .dwattr $C$DW$23, DW_AT_TI_symbol_name("_fs")
     170                            .dwattr $C$DW$23, DW_AT_type(*$C$DW$T$19)
     171                            .dwattr $C$DW$23, DW_AT_declaration
     172                            .dwattr $C$DW$23, DW_AT_external
     173                    ;       C:\ti\ccsv6\tools\compiler\c6000_7.4.18\bin\opt6x.exe C:\\Users\\Pc\\AppData\\Local\\Temp\\037
     174 00000000                   .sect   ".text"
     175                            .clink
     176                            .global _output_sample
     177                    
     178                    $C$DW$24        .dwtag  DW_TAG_subprogram, DW_AT_name("output_sample")
     179                            .dwattr $C$DW$24, DW_AT_low_pc(_output_sample)
     180                            .dwattr $C$DW$24, DW_AT_high_pc(0x00)
     181                            .dwattr $C$DW$24, DW_AT_TI_symbol_name("_output_sample")
     182                            .dwattr $C$DW$24, DW_AT_external
     183                            .dwattr $C$DW$24, DW_AT_TI_begin_file("../c6713dskinit.c")
     184                            .dwattr $C$DW$24, DW_AT_TI_begin_line(0x2d)
     185                            .dwattr $C$DW$24, DW_AT_TI_begin_column(0x06)
     186                            .dwattr $C$DW$24, DW_AT_TI_max_frame_size(0x00)
     187                            .dwpsn  file "../c6713dskinit.c",line 46,column 1,is_stmt,address _output_sample
     188                    
     189                            .dwfde $C$DW$CIE, _output_sample
     190                    $C$DW$25        .dwtag  DW_TAG_formal_parameter, DW_AT_name("out_data")
     191                            .dwattr $C$DW$25, DW_AT_TI_symbol_name("_out_data")
     192                            .dwattr $C$DW$25, DW_AT_type(*$C$DW$T$10)
     193                            .dwattr $C$DW$25, DW_AT_location[DW_OP_reg4]
     194                    
     195                    ;******************************************************************************
     196                    ;* FUNCTION NAME: output_sample                                               *
     197                    ;*                                                                            *
     198                    ;*   Regs Modified     : A1,A3,A4,A5,A6,A7,B0,B4                              *
     199                    ;*   Regs Used         : A1,A3,A4,A5,A6,A7,B0,B3,B4                           *
     200                    ;*   Local Frame Size  : 0 Args + 0 Auto + 0 Save = 0 byte                    *
     201                    ;******************************************************************************
     202                    
     203                    ;******************************************************************************
     204                    ;*                                                                            *
     205                    ;* Using -g (debug) with optimization (-o2) may disable key optimizations!    *
     206                    ;*                                                                            *
     207                    ;******************************************************************************
     208 00000000           _output_sample:
     209                    ;** --------------------------------------------------------------------------*
     210                            .dwcfi  cfa_offset, 0
     211                            .dwcfi  save_reg_to_reg, 228, 19
     212                    $C$DW$26        .dwtag  DW_TAG_variable, DW_AT_name("CHANNEL_data")
     213                            .dwattr $C$DW$26, DW_AT_TI_symbol_name("_CHANNEL_data")
     214                            .dwattr $C$DW$26, DW_AT_type(*$C$DW$T$8)
     215                            .dwattr $C$DW$26, DW_AT_location[DW_OP_reg4]
     216                    $C$DW$27        .dwtag  DW_TAG_variable, DW_AT_name("out_data")
     217                            .dwattr $C$DW$27, DW_AT_TI_symbol_name("_out_data")
     218                            .dwattr $C$DW$27, DW_AT_type(*$C$DW$T$57)
     219                            .dwattr $C$DW$27, DW_AT_location[DW_OP_reg4]
     220                            .dwpsn  file "../c6713dskinit.c",line 50,column 2,is_stmt
TMS320C6x Assembler PC v7.4.18 Tue Jan 02 08:53:48 2018

Tools Copyright (c) 1996-2015 Texas Instruments Incorporated
C:\Users\Pc\AppData\Local\Temp\0378410                               PAGE    5

     221 00000000 01800028-            MVKL    .S1     _AIC_data,A3
     222 00000004 01800068-            MVKH    .S1     _AIC_data,A3
     223 00000008 020C0274             STW     .D1T1   A4,*A3            ; |50| 
     224                            .dwpsn  file "../c6713dskinit.c",line 55,column 2,is_stmt
     225 0000000c 020C0244             LDH     .D1T1   *A3,A4            ; |55| 
     226                            .dwpsn  file "../c6713dskinit.c",line 56,column 2,is_stmt
     227 00000010 020C2246             LDH     .D1T2   *+A3(2),B4        ; |56| 
     228 00000014 038C0058             MV      .L1     A3,A7             ; |56| 
     229 00000018 00004000             NOP             3
     230 0000001c 021C0256             STH     .D1T2   B4,*A7            ; |56| 
     231                            .dwpsn  file "../c6713dskinit.c",line 57,column 2,is_stmt
     232 00000020 021C505A             ADD     .L2X    2,A7,B4
     233 00000024 021002D4             STH     .D2T1   A4,*B4            ; |57| 
     234                            .dwpsn  file "../c6713dskinit.c",line 58,column 4,is_stmt
     235 00000028 0200042A-            MVKL    .S2     _poll,B4
     236 0000002c 0200006A-            MVKH    .S2     _poll,B4
     237 00000030 009002E4             LDW     .D2T1   *B4,A1            ; |58| 
     238 00000034 01800028!            MVKL    .S1     _DSK6713_AIC23_codecdatahandle,A3
     239 00000038 01800068!            MVKH    .S1     _DSK6713_AIC23_codecdatahandle,A3
     240 0000003c 030C0264             LDW     .D1T1   *A3,A6            ; |58| 
     241 00000040 00000000             NOP             1
     242 00000044 90000B10     [!A1]   B       .S1     $C$L4             ; |58| 
     243 00000048 00008000             NOP             5
     244                               ; BRANCHCC OCCURS {$C$L4}         ; |58| 
     245                    ;** --------------------------------------------------------------------------*
     246                            .dwpsn  file "C:/ti/CCCStudio_v3.1/C6000/csl/include/csl_mcbsp.h",line 229,column 3,is_stmt
     247 0000004c 01986264             LDW     .D1T1   *+A6(12),A3       ; |229| 
     248 00000050 020000FA             ZERO    .L2     B4                ; |229| 
     249 00000054 0200016A             MVKH    .S2     0x20000,B4        ; |229| 
     250 00000058 00002000             NOP             2
     251 0000005c 028D0058             ADD     .L1     8,A3,A5           ; |229| 
     252 00000060 01940264             LDW     .D1T1   *A5,A3            ; |229| 
     253 00000064 00006000             NOP             4
     254 00000068 008DDF08             EXTU    .S1     A3,14,31,A1       ; |229| 
     255                    
     256 0000006c 80000711     [ A1]   B       .S1     $C$L4             ; |229| 
     257 00000070 91940264  || [!A1]   LDW     .D1T1   *A5,A3            ; |229| (P) <0,0>  ^ 
     258                    
     259 00000074 900000AA     [!A1]   MVK     .S2     0x1,B0
     260 00000078 92101058     [!A1]   MV      .L1X    B4,A4
     261 0000007c 00002000             NOP             2
     262 00000080 008C8F78             AND     .L1     A4,A3,A1          ; |229| (P) <0,5>  ^ 
     263                               ; BRANCHCC OCCURS {$C$L4}         ; |229| 
     264                    ;*----------------------------------------------------------------------------*
     265                    ;*   SOFTWARE PIPELINE INFORMATION
     266                    ;*
     267                    ;*      Loop found in file               : ../c6713dskinit.c
     268                    ;*      Loop inlined from                : C:/ti/CCCStudio_v3.1/C6000/csl/include/csl_mcbsp.h
     269                    ;*      Loop source line                 : 58
     270                    ;*      Loop closing brace source line   : 229
     271                    ;*      Known Minimum Trip Count         : 1                    
     272                    ;*      Known Max Trip Count Factor      : 1
     273                    ;*      Loop Carried Dependency Bound(^) : 7
     274                    ;*      Unpartitioned Resource Bound     : 1
     275                    ;*      Partitioned Resource Bound(*)    : 1
TMS320C6x Assembler PC v7.4.18 Tue Jan 02 08:53:48 2018

Tools Copyright (c) 1996-2015 Texas Instruments Incorporated
C:\Users\Pc\AppData\Local\Temp\0378410                               PAGE    6

     276                    ;*      Resource Partition:
     277                    ;*                                A-side   B-side
     278                    ;*      .L units                     0        0     
     279                    ;*      .S units                     0        1*    
     280                    ;*      .D units                     1*       0     
     281                    ;*      .M units                     0        0     
     282                    ;*      .X cross paths               0        0     
     283                    ;*      .T address paths             1*       0     
     284                    ;*      Long read paths              0        0     
     285                    ;*      Long write paths             0        0     
     286                    ;*      Logical  ops (.LS)           1        0     (.L or .S unit)
     287                    ;*      Addition ops (.LSD)          0        1     (.L or .S or .D unit)
     288                    ;*      Bound(.L .S .LS)             1*       1*    
     289                    ;*      Bound(.L .S .D .LS .LSD)     1*       1*    
     290                    ;*
     291                    ;*      Searching for software pipeline schedule at ...
     292                    ;*         ii = 7  Schedule found with 2 iterations in parallel
     293                    ;*      Done
     294                    ;*
     295                    ;*      Loop is interruptible
     296                    ;*      Collapsed epilog stages       : 1
     297                    ;*      Prolog not removed
     298                    ;*      Collapsed prolog stages       : 0
     299                    ;*
     300                    ;*      Minimum required memory pad   : 0 bytes
     301                    ;*
     302                    ;*      Minimum safe trip count       : 1
     303                    ;*----------------------------------------------------------------------------*
     304 00000084           $C$L1:    ; PIPED LOOP PROLOG
     305                    ;** --------------------------------------------------------------------------*
     306 00000084           $C$L2:    ; PIPED LOOP KERNEL
     307 00000084           $C$DW$L$_output_sample$4$B:
     308 00000084 800000FA     [ A1]   ZERO    .L2     B0                ; |229| <0,6>  ^ 
     309                    
     310 00000088 20000093     [ B0]   B       .S2     $C$L2             ; |229| <0,7> 
     311 0000008c 21940264  || [ B0]   LDW     .D1T1   *A5,A3            ; |229| <1,0>  ^ 
     312                    
     313 00000090 00006000             NOP             4
     314 00000094 008C8F78             AND     .L1     A4,A3,A1          ; |229| <1,5>  ^ 
     315 00000098           $C$DW$L$_output_sample$4$E:
     316                    ;** --------------------------------------------------------------------------*
     317 00000098           $C$L3:    ; PIPED LOOP EPILOG
     318                    ;** --------------------------------------------------------------------------*
     319 00000098           $C$L4:    
     320                            .dwpsn  file "C:/ti/CCCStudio_v3.1/C6000/csl/include/csl_mcbsp.h",line 225,column 3,is_stmt
     321                    
     322 00000098 019C0059             MV      .L1     A7,A3
     323 0000009c 0218A264  ||         LDW     .D1T1   *+A6(20),A4       ; |225| 
     324                    
     325 000000a0 018C0264             LDW     .D1T1   *A3,A3            ; |225| 
     326 000000a4 00006000             NOP             4
     327 000000a8 01900274             STW     .D1T1   A3,*A4            ; |225| 
     328                            .dwpsn  file "../c6713dskinit.c",line 60,column 1,is_stmt
     329                            .dwcfi  cfa_offset, 0
     330                    $C$DW$28        .dwtag  DW_TAG_TI_branch
TMS320C6x Assembler PC v7.4.18 Tue Jan 02 08:53:48 2018

Tools Copyright (c) 1996-2015 Texas Instruments Incorporated
C:\Users\Pc\AppData\Local\Temp\0378410                               PAGE    7

     331                            .dwattr $C$DW$28, DW_AT_low_pc(0x00)
     332                            .dwattr $C$DW$28, DW_AT_TI_return
     333 000000ac 000C0362             RET     .S2     B3                ; |60| 
     334 000000b0 00008000             NOP             5
     335                               ; BRANCH OCCURS {B3}              ; |60| 
     336                    
     337                    $C$DW$29        .dwtag  DW_TAG_TI_loop
     338                            .dwattr $C$DW$29, DW_AT_name("C:\\Users\\Pc\\AppData\\Local\\Temp\\0378410:$C$L2:1:1514879628"
     339                            .dwattr $C$DW$29, DW_AT_TI_begin_file("C:/ti/CCCStudio_v3.1/C6000/csl/include/csl_mcbsp.h")
     340                            .dwattr $C$DW$29, DW_AT_TI_begin_line(0x3a)
     341                            .dwattr $C$DW$29, DW_AT_TI_end_line(0xe5)
     342                    $C$DW$30        .dwtag  DW_TAG_TI_loop_range
     343                            .dwattr $C$DW$30, DW_AT_low_pc($C$DW$L$_output_sample$4$B)
     344                            .dwattr $C$DW$30, DW_AT_high_pc($C$DW$L$_output_sample$4$E)
     345                            .dwendtag $C$DW$29
     346                    
     347                            .dwattr $C$DW$24, DW_AT_TI_end_file("../c6713dskinit.c")
     348                            .dwattr $C$DW$24, DW_AT_TI_end_line(0x3c)
     349                            .dwattr $C$DW$24, DW_AT_TI_end_column(0x01)
     350                            .dwendentry
     351                            .dwendtag $C$DW$24
     352                    
     353 000000b4                   .sect   ".text"
     354                            .clink
     355                            .global _output_right_sample
     356                    
     357                    $C$DW$31        .dwtag  DW_TAG_subprogram, DW_AT_name("output_right_sample")
     358                            .dwattr $C$DW$31, DW_AT_low_pc(_output_right_sample)
     359                            .dwattr $C$DW$31, DW_AT_high_pc(0x00)
     360                            .dwattr $C$DW$31, DW_AT_TI_symbol_name("_output_right_sample")
     361                            .dwattr $C$DW$31, DW_AT_external
     362                            .dwattr $C$DW$31, DW_AT_TI_begin_file("../c6713dskinit.c")
     363                            .dwattr $C$DW$31, DW_AT_TI_begin_line(0x47)
     364                            .dwattr $C$DW$31, DW_AT_TI_begin_column(0x06)
     365                            .dwattr $C$DW$31, DW_AT_TI_max_frame_size(0x00)
     366                            .dwpsn  file "../c6713dskinit.c",line 72,column 1,is_stmt,address _output_right_sample
     367                    
     368                            .dwfde $C$DW$CIE, _output_right_sample
     369                    $C$DW$32        .dwtag  DW_TAG_formal_parameter, DW_AT_name("out_data")
     370                            .dwattr $C$DW$32, DW_AT_TI_symbol_name("_out_data")
     371                            .dwattr $C$DW$32, DW_AT_type(*$C$DW$T$8)
     372                            .dwattr $C$DW$32, DW_AT_location[DW_OP_reg4]
     373                    
     374                    ;******************************************************************************
     375                    ;* FUNCTION NAME: output_right_sample                                         *
     376                    ;*                                                                            *
     377                    ;*   Regs Modified     : A1,A3,A4,A5,A6,A7,B0,B4                              *
     378                    ;*   Regs Used         : A1,A3,A4,A5,A6,A7,B0,B3,B4                           *
     379                    ;*   Local Frame Size  : 0 Args + 0 Auto + 0 Save = 0 byte                    *
     380                    ;******************************************************************************
     381                    
     382                    ;******************************************************************************
     383                    ;*                                                                            *
     384                    ;* Using -g (debug) with optimization (-o2) may disable key optimizations!    *
     385                    ;*                                                                            *
TMS320C6x Assembler PC v7.4.18 Tue Jan 02 08:53:48 2018

Tools Copyright (c) 1996-2015 Texas Instruments Incorporated
C:\Users\Pc\AppData\Local\Temp\0378410                               PAGE    8

     386                    ;******************************************************************************
     387 000000b4           _output_right_sample:
     388                    ;** --------------------------------------------------------------------------*
     389                            .dwcfi  cfa_offset, 0
     390                            .dwcfi  save_reg_to_reg, 228, 19
     391                    $C$DW$33        .dwtag  DW_TAG_variable, DW_AT_name("out_data")
     392                            .dwattr $C$DW$33, DW_AT_TI_symbol_name("_out_data")
     393                            .dwattr $C$DW$33, DW_AT_type(*$C$DW$T$53)
     394                            .dwattr $C$DW$33, DW_AT_location[DW_OP_reg4]
     395                            .dwpsn  file "../c6713dskinit.c",line 73,column 2,is_stmt
     396                    
     397 000000b4 01800029-            MVKL    .S1     _AIC_data,A3
     398 000000b8 028000F8  ||         ZERO    .L1     A5                ; |73| 
     399                    
     400 000000bc 01800068-            MVKH    .S1     _AIC_data,A3
     401 000000c0 028C0274             STW     .D1T1   A5,*A3            ; |73| 
     402                            .dwpsn  file "../c6713dskinit.c",line 74,column 2,is_stmt
     403 000000c4 038C0058             MV      .L1     A3,A7
     404 000000c8 021C0254             STH     .D1T1   A4,*A7            ; |74| 
     405                            .dwpsn  file "../c6713dskinit.c",line 76,column 2,is_stmt
     406 000000cc 0200042A-            MVKL    .S2     _poll,B4
     407 000000d0 0200006A-            MVKH    .S2     _poll,B4
     408 000000d4 001002E6             LDW     .D2T2   *B4,B0            ; |76| 
     409 000000d8 01800028!            MVKL    .S1     _DSK6713_AIC23_codecdatahandle,A3
     410 000000dc 01800068!            MVKH    .S1     _DSK6713_AIC23_codecdatahandle,A3
     411 000000e0 030C0264             LDW     .D1T1   *A3,A6            ; |76| 
     412 000000e4 00000000             NOP             1
     413 000000e8 30000C10     [!B0]   B       .S1     $C$L8             ; |76| 
     414 000000ec 00008000             NOP             5
     415                               ; BRANCHCC OCCURS {$C$L8}         ; |76| 
     416                    ;** --------------------------------------------------------------------------*
     417                            .dwpsn  file "C:/ti/CCCStudio_v3.1/C6000/csl/include/csl_mcbsp.h",line 229,column 3,is_stmt
     418 000000f0 01986264             LDW     .D1T1   *+A6(12),A3       ; |229| 
     419 000000f4 020000FA             ZERO    .L2     B4                ; |229| 
     420 000000f8 0200016A             MVKH    .S2     0x20000,B4        ; |229| 
     421 000000fc 00002000             NOP             2
     422 00000100 028D0058             ADD     .L1     8,A3,A5           ; |229| 
     423 00000104 01940264             LDW     .D1T1   *A5,A3            ; |229| 
     424 00000108 00006000             NOP             4
     425 0000010c 008DDF08             EXTU    .S1     A3,14,31,A1       ; |229| 
     426                    
     427 00000110 80000811     [ A1]   B       .S1     $C$L8             ; |229| 
     428 00000114 91940264  || [!A1]   LDW     .D1T1   *A5,A3            ; |229| (P) <0,0>  ^ 
     429                    
     430 00000118 900000AA     [!A1]   MVK     .S2     0x1,B0
     431 0000011c 92101058     [!A1]   MV      .L1X    B4,A4
     432 00000120 00002000             NOP             2
     433 00000124 008C8F78             AND     .L1     A4,A3,A1          ; |229| (P) <0,5>  ^ 
     434                               ; BRANCHCC OCCURS {$C$L8}         ; |229| 
     435                    ;*----------------------------------------------------------------------------*
     436                    ;*   SOFTWARE PIPELINE INFORMATION
     437                    ;*
     438                    ;*      Loop found in file               : ../c6713dskinit.c
     439                    ;*      Loop inlined from                : C:/ti/CCCStudio_v3.1/C6000/csl/include/csl_mcbsp.h
     440                    ;*      Loop source line                 : 76
TMS320C6x Assembler PC v7.4.18 Tue Jan 02 08:53:48 2018

Tools Copyright (c) 1996-2015 Texas Instruments Incorporated
C:\Users\Pc\AppData\Local\Temp\0378410                               PAGE    9

     441                    ;*      Loop closing brace source line   : 229
     442                    ;*      Known Minimum Trip Count         : 1                    
     443                    ;*      Known Max Trip Count Factor      : 1
     444                    ;*      Loop Carried Dependency Bound(^) : 7
     445                    ;*      Unpartitioned Resource Bound     : 1
     446                    ;*      Partitioned Resource Bound(*)    : 1
     447                    ;*      Resource Partition:
     448                    ;*                                A-side   B-side
     449                    ;*      .L units                     0        0     
     450                    ;*      .S units                     0        1*    
     451                    ;*      .D units                     1*       0     
     452                    ;*      .M units                     0        0     
     453                    ;*      .X cross paths               0        0     
     454                    ;*      .T address paths             1*       0     
     455                    ;*      Long read paths              0        0     
     456                    ;*      Long write paths             0        0     
     457                    ;*      Logical  ops (.LS)           1        0     (.L or .S unit)
     458                    ;*      Addition ops (.LSD)          0        1     (.L or .S or .D unit)
     459                    ;*      Bound(.L .S .LS)             1*       1*    
     460                    ;*      Bound(.L .S .D .LS .LSD)     1*       1*    
     461                    ;*
     462                    ;*      Searching for software pipeline schedule at ...
     463                    ;*         ii = 7  Schedule found with 2 iterations in parallel
     464                    ;*      Done
     465                    ;*
     466                    ;*      Loop is interruptible
     467                    ;*      Collapsed epilog stages       : 1
     468                    ;*      Prolog not removed
     469                    ;*      Collapsed prolog stages       : 0
     470                    ;*
     471                    ;*      Minimum required memory pad   : 0 bytes
     472                    ;*
     473                    ;*      Minimum safe trip count       : 1
     474                    ;*----------------------------------------------------------------------------*
     475 00000128           $C$L5:    ; PIPED LOOP PROLOG
     476                    ;** --------------------------------------------------------------------------*
     477 00000128           $C$L6:    ; PIPED LOOP KERNEL
     478 00000128           $C$DW$L$_output_right_sample$4$B:
     479 00000128 800000FA     [ A1]   ZERO    .L2     B0                ; |229| <0,6>  ^ 
     480                    
     481 0000012c 20000113     [ B0]   B       .S2     $C$L6             ; |229| <0,7> 
     482 00000130 21940264  || [ B0]   LDW     .D1T1   *A5,A3            ; |229| <1,0>  ^ 
     483                    
     484 00000134 00006000             NOP             4
     485 00000138 008C8F78             AND     .L1     A4,A3,A1          ; |229| <1,5>  ^ 
     486 00000140           $C$DW$L$_output_right_sample$4$E:
     487                    ;** --------------------------------------------------------------------------*
     488 00000140           $C$L7:    ; PIPED LOOP EPILOG
     489                    ;** --------------------------------------------------------------------------*
     490 00000140           $C$L8:    
     491                            .dwpsn  file "C:/ti/CCCStudio_v3.1/C6000/csl/include/csl_mcbsp.h",line 225,column 3,is_stmt
     492                    
     493 00000140 019C0059             MV      .L1     A7,A3
     494 00000144 0218A264  ||         LDW     .D1T1   *+A6(20),A4       ; |225| 
     495                    
TMS320C6x Assembler PC v7.4.18 Tue Jan 02 08:53:48 2018

Tools Copyright (c) 1996-2015 Texas Instruments Incorporated
C:\Users\Pc\AppData\Local\Temp\0378410                               PAGE   10

     496 00000148 018C0264             LDW     .D1T1   *A3,A3            ; |225| 
     497 0000014c 00006000             NOP             4
     498 00000150 01900274             STW     .D1T1   A3,*A4            ; |225| 
     499                            .dwpsn  file "../c6713dskinit.c",line 78,column 1,is_stmt
     500                            .dwcfi  cfa_offset, 0
     501                    $C$DW$34        .dwtag  DW_TAG_TI_branch
     502                            .dwattr $C$DW$34, DW_AT_low_pc(0x00)
     503                            .dwattr $C$DW$34, DW_AT_TI_return
     504 00000154 000C0362             RET     .S2     B3                ; |78| 
     505 00000158 00008000             NOP             5
     506                               ; BRANCH OCCURS {B3}              ; |78| 
     507                    
     508                    $C$DW$35        .dwtag  DW_TAG_TI_loop
     509                            .dwattr $C$DW$35, DW_AT_name("C:\\Users\\Pc\\AppData\\Local\\Temp\\0378410:$C$L6:1:1514879628"
     510                            .dwattr $C$DW$35, DW_AT_TI_begin_file("C:/ti/CCCStudio_v3.1/C6000/csl/include/csl_mcbsp.h")
     511                            .dwattr $C$DW$35, DW_AT_TI_begin_line(0x4c)
     512                            .dwattr $C$DW$35, DW_AT_TI_end_line(0xe5)
     513                    $C$DW$36        .dwtag  DW_TAG_TI_loop_range
     514                            .dwattr $C$DW$36, DW_AT_low_pc($C$DW$L$_output_right_sample$4$B)
     515                            .dwattr $C$DW$36, DW_AT_high_pc($C$DW$L$_output_right_sample$4$E)
     516                            .dwendtag $C$DW$35
     517                    
     518                            .dwattr $C$DW$31, DW_AT_TI_end_file("../c6713dskinit.c")
     519                            .dwattr $C$DW$31, DW_AT_TI_end_line(0x4e)
     520                            .dwattr $C$DW$31, DW_AT_TI_end_column(0x01)
     521                            .dwendentry
     522                            .dwendtag $C$DW$31
     523                    
     524 00000160                   .sect   ".text"
     525                            .clink
     526                            .global _output_left_sample
     527                    
     528                    $C$DW$37        .dwtag  DW_TAG_subprogram, DW_AT_name("output_left_sample")
     529                            .dwattr $C$DW$37, DW_AT_low_pc(_output_left_sample)
     530                            .dwattr $C$DW$37, DW_AT_high_pc(0x00)
     531                            .dwattr $C$DW$37, DW_AT_TI_symbol_name("_output_left_sample")
     532                            .dwattr $C$DW$37, DW_AT_external
     533                            .dwattr $C$DW$37, DW_AT_TI_begin_file("../c6713dskinit.c")
     534                            .dwattr $C$DW$37, DW_AT_TI_begin_line(0x3e)
     535                            .dwattr $C$DW$37, DW_AT_TI_begin_column(0x06)
     536                            .dwattr $C$DW$37, DW_AT_TI_max_frame_size(0x00)
     537                            .dwpsn  file "../c6713dskinit.c",line 63,column 1,is_stmt,address _output_left_sample
     538                    
     539                            .dwfde $C$DW$CIE, _output_left_sample
     540                    $C$DW$38        .dwtag  DW_TAG_formal_parameter, DW_AT_name("out_data")
     541                            .dwattr $C$DW$38, DW_AT_TI_symbol_name("_out_data")
     542                            .dwattr $C$DW$38, DW_AT_type(*$C$DW$T$8)
     543                            .dwattr $C$DW$38, DW_AT_location[DW_OP_reg4]
     544                    
     545                    ;******************************************************************************
     546                    ;* FUNCTION NAME: output_left_sample                                          *
     547                    ;*                                                                            *
     548                    ;*   Regs Modified     : A1,A3,A4,A5,A6,A7,B0,B4                              *
     549                    ;*   Regs Used         : A1,A3,A4,A5,A6,A7,B0,B3,B4                           *
     550                    ;*   Local Frame Size  : 0 Args + 0 Auto + 0 Save = 0 byte                    *
TMS320C6x Assembler PC v7.4.18 Tue Jan 02 08:53:48 2018

Tools Copyright (c) 1996-2015 Texas Instruments Incorporated
C:\Users\Pc\AppData\Local\Temp\0378410                               PAGE   11

     551                    ;******************************************************************************
     552                    
     553                    ;******************************************************************************
     554                    ;*                                                                            *
     555                    ;* Using -g (debug) with optimization (-o2) may disable key optimizations!    *
     556                    ;*                                                                            *
     557                    ;******************************************************************************
     558 00000160           _output_left_sample:
     559                    ;** --------------------------------------------------------------------------*
     560                            .dwcfi  cfa_offset, 0
     561                            .dwcfi  save_reg_to_reg, 228, 19
     562                    $C$DW$39        .dwtag  DW_TAG_variable, DW_AT_name("out_data")
     563                            .dwattr $C$DW$39, DW_AT_TI_symbol_name("_out_data")
     564                            .dwattr $C$DW$39, DW_AT_type(*$C$DW$T$53)
     565                            .dwattr $C$DW$39, DW_AT_location[DW_OP_reg4]
     566                            .dwpsn  file "../c6713dskinit.c",line 64,column 2,is_stmt
     567                    
     568 00000160 03800029-            MVKL    .S1     _AIC_data,A7
     569 00000164 018000F8  ||         ZERO    .L1     A3                ; |64| 
     570                    
     571 00000168 03800068-            MVKH    .S1     _AIC_data,A7
     572 0000016c 019C0274             STW     .D1T1   A3,*A7            ; |64| 
     573                            .dwpsn  file "../c6713dskinit.c",line 65,column 2,is_stmt
     574 00000170 021C2254             STH     .D1T1   A4,*+A7(2)        ; |65| 
     575                            .dwpsn  file "../c6713dskinit.c",line 67,column 2,is_stmt
     576 00000174 0200042A-            MVKL    .S2     _poll,B4
     577 00000178 0200006A-            MVKH    .S2     _poll,B4
     578 0000017c 001002E6             LDW     .D2T2   *B4,B0            ; |67| 
     579 00000180 01800028!            MVKL    .S1     _DSK6713_AIC23_codecdatahandle,A3
     580 00000184 01800068!            MVKH    .S1     _DSK6713_AIC23_codecdatahandle,A3
     581 00000188 030C0264             LDW     .D1T1   *A3,A6            ; |67| 
     582 0000018c 00000000             NOP             1
     583 00000190 30000C90     [!B0]   B       .S1     $C$L12            ; |67| 
     584 00000194 00008000             NOP             5
     585                               ; BRANCHCC OCCURS {$C$L12}        ; |67| 
     586                    ;** --------------------------------------------------------------------------*
     587                            .dwpsn  file "C:/ti/CCCStudio_v3.1/C6000/csl/include/csl_mcbsp.h",line 229,column 3,is_stmt
     588 00000198 01986264             LDW     .D1T1   *+A6(12),A3       ; |229| 
     589 0000019c 020000FA             ZERO    .L2     B4                ; |229| 
     590 000001a0 0200016A             MVKH    .S2     0x20000,B4        ; |229| 
     591 000001a4 00002000             NOP             2
     592 000001a8 028D0058             ADD     .L1     8,A3,A5           ; |229| 
     593 000001ac 01940264             LDW     .D1T1   *A5,A3            ; |229| 
     594 000001b0 00006000             NOP             4
     595 000001b4 008DDF08             EXTU    .S1     A3,14,31,A1       ; |229| 
     596                    
     597 000001b8 80000891     [ A1]   B       .S1     $C$L12            ; |229| 
     598 000001bc 91940264  || [!A1]   LDW     .D1T1   *A5,A3            ; |229| (P) <0,0>  ^ 
     599                    
     600 000001c0 900000AA     [!A1]   MVK     .S2     0x1,B0
     601 000001c4 92101058     [!A1]   MV      .L1X    B4,A4
     602 000001c8 00002000             NOP             2
     603 000001cc 008C8F78             AND     .L1     A4,A3,A1          ; |229| (P) <0,5>  ^ 
     604                               ; BRANCHCC OCCURS {$C$L12}        ; |229| 
     605                    ;*----------------------------------------------------------------------------*
TMS320C6x Assembler PC v7.4.18 Tue Jan 02 08:53:48 2018

Tools Copyright (c) 1996-2015 Texas Instruments Incorporated
C:\Users\Pc\AppData\Local\Temp\0378410                               PAGE   12

     606                    ;*   SOFTWARE PIPELINE INFORMATION
     607                    ;*
     608                    ;*      Loop found in file               : ../c6713dskinit.c
     609                    ;*      Loop inlined from                : C:/ti/CCCStudio_v3.1/C6000/csl/include/csl_mcbsp.h
     610                    ;*      Loop source line                 : 67
     611                    ;*      Loop closing brace source line   : 229
     612                    ;*      Known Minimum Trip Count         : 1                    
     613                    ;*      Known Max Trip Count Factor      : 1
     614                    ;*      Loop Carried Dependency Bound(^) : 7
     615                    ;*      Unpartitioned Resource Bound     : 1
     616                    ;*      Partitioned Resource Bound(*)    : 1
     617                    ;*      Resource Partition:
     618                    ;*                                A-side   B-side
     619                    ;*      .L units                     0        0     
     620                    ;*      .S units                     0        1*    
     621                    ;*      .D units                     1*       0     
     622                    ;*      .M units                     0        0     
     623                    ;*      .X cross paths               0        0     
     624                    ;*      .T address paths             1*       0     
     625                    ;*      Long read paths              0        0     
     626                    ;*      Long write paths             0        0     
     627                    ;*      Logical  ops (.LS)           1        0     (.L or .S unit)
     628                    ;*      Addition ops (.LSD)          0        1     (.L or .S or .D unit)
     629                    ;*      Bound(.L .S .LS)             1*       1*    
     630                    ;*      Bound(.L .S .D .LS .LSD)     1*       1*    
     631                    ;*
     632                    ;*      Searching for software pipeline schedule at ...
     633                    ;*         ii = 7  Schedule found with 2 iterations in parallel
     634                    ;*      Done
     635                    ;*
     636                    ;*      Loop is interruptible
     637                    ;*      Collapsed epilog stages       : 1
     638                    ;*      Prolog not removed
     639                    ;*      Collapsed prolog stages       : 0
     640                    ;*
     641                    ;*      Minimum required memory pad   : 0 bytes
     642                    ;*
     643                    ;*      Minimum safe trip count       : 1
     644                    ;*----------------------------------------------------------------------------*
     645 000001d0           $C$L9:    ; PIPED LOOP PROLOG
     646                    ;** --------------------------------------------------------------------------*
     647 000001d0           $C$L10:    ; PIPED LOOP KERNEL
     648 000001d0           $C$DW$L$_output_left_sample$4$B:
     649 000001d0 800000FA     [ A1]   ZERO    .L2     B0                ; |229| <0,6>  ^ 
     650                    
     651 000001d4 20000213     [ B0]   B       .S2     $C$L10            ; |229| <0,7> 
     652 000001d8 21940264  || [ B0]   LDW     .D1T1   *A5,A3            ; |229| <1,0>  ^ 
     653                    
     654 000001dc 00006000             NOP             4
     655 000001e0 008C8F78             AND     .L1     A4,A3,A1          ; |229| <1,5>  ^ 
     656 000001e4           $C$DW$L$_output_left_sample$4$E:
     657                    ;** --------------------------------------------------------------------------*
     658 000001e4           $C$L11:    ; PIPED LOOP EPILOG
     659                    ;** --------------------------------------------------------------------------*
     660 000001e4           $C$L12:    
TMS320C6x Assembler PC v7.4.18 Tue Jan 02 08:53:48 2018

Tools Copyright (c) 1996-2015 Texas Instruments Incorporated
C:\Users\Pc\AppData\Local\Temp\0378410                               PAGE   13

     661                            .dwpsn  file "C:/ti/CCCStudio_v3.1/C6000/csl/include/csl_mcbsp.h",line 225,column 3,is_stmt
     662                    
     663 000001e4 019C0059             MV      .L1     A7,A3
     664 000001e8 0218A264  ||         LDW     .D1T1   *+A6(20),A4       ; |225| 
     665                    
     666 000001ec 018C0264             LDW     .D1T1   *A3,A3            ; |225| 
     667 000001f0 00006000             NOP             4
     668 000001f4 01900274             STW     .D1T1   A3,*A4            ; |225| 
     669                            .dwpsn  file "../c6713dskinit.c",line 69,column 1,is_stmt
     670                            .dwcfi  cfa_offset, 0
     671                    $C$DW$40        .dwtag  DW_TAG_TI_branch
     672                            .dwattr $C$DW$40, DW_AT_low_pc(0x00)
     673                            .dwattr $C$DW$40, DW_AT_TI_return
     674 000001f8 000C0362             RET     .S2     B3                ; |69| 
     675 000001fc 00008000             NOP             5
     676                               ; BRANCH OCCURS {B3}              ; |69| 
     677                    
     678                    $C$DW$41        .dwtag  DW_TAG_TI_loop
     679                            .dwattr $C$DW$41, DW_AT_name("C:\\Users\\Pc\\AppData\\Local\\Temp\\0378410:$C$L10:1:1514879628
     680                            .dwattr $C$DW$41, DW_AT_TI_begin_file("C:/ti/CCCStudio_v3.1/C6000/csl/include/csl_mcbsp.h")
     681                            .dwattr $C$DW$41, DW_AT_TI_begin_line(0x43)
     682                            .dwattr $C$DW$41, DW_AT_TI_end_line(0xe5)
     683                    $C$DW$42        .dwtag  DW_TAG_TI_loop_range
     684                            .dwattr $C$DW$42, DW_AT_low_pc($C$DW$L$_output_left_sample$4$B)
     685                            .dwattr $C$DW$42, DW_AT_high_pc($C$DW$L$_output_left_sample$4$E)
     686                            .dwendtag $C$DW$41
     687                    
     688                            .dwattr $C$DW$37, DW_AT_TI_end_file("../c6713dskinit.c")
     689                            .dwattr $C$DW$37, DW_AT_TI_end_line(0x45)
     690                            .dwattr $C$DW$37, DW_AT_TI_end_column(0x01)
     691                            .dwendentry
     692                            .dwendtag $C$DW$37
     693                    
     694 00000200                   .sect   ".text"
     695                            .clink
     696                            .global _input_sample
     697                    
     698                    $C$DW$43        .dwtag  DW_TAG_subprogram, DW_AT_name("input_sample")
     699                            .dwattr $C$DW$43, DW_AT_low_pc(_input_sample)
     700                            .dwattr $C$DW$43, DW_AT_high_pc(0x00)
     701                            .dwattr $C$DW$43, DW_AT_TI_symbol_name("_input_sample")
     702                            .dwattr $C$DW$43, DW_AT_external
     703                            .dwattr $C$DW$43, DW_AT_type(*$C$DW$T$19)
     704                            .dwattr $C$DW$43, DW_AT_TI_begin_file("../c6713dskinit.c")
     705                            .dwattr $C$DW$43, DW_AT_TI_begin_line(0x50)
     706                            .dwattr $C$DW$43, DW_AT_TI_begin_column(0x08)
     707                            .dwattr $C$DW$43, DW_AT_TI_max_frame_size(0x00)
     708                            .dwpsn  file "../c6713dskinit.c",line 81,column 1,is_stmt,address _input_sample
     709                    
     710                            .dwfde $C$DW$CIE, _input_sample
     711                    
     712                    ;******************************************************************************
     713                    ;* FUNCTION NAME: input_sample                                                *
     714                    ;*                                                                            *
     715                    ;*   Regs Modified     : A1,A3,A4,A5,B0,B4,B5                                 *
TMS320C6x Assembler PC v7.4.18 Tue Jan 02 08:53:48 2018

Tools Copyright (c) 1996-2015 Texas Instruments Incorporated
C:\Users\Pc\AppData\Local\Temp\0378410                               PAGE   14

     716                    ;*   Regs Used         : A1,A3,A4,A5,B0,B3,B4,B5                              *
     717                    ;*   Local Frame Size  : 0 Args + 0 Auto + 0 Save = 0 byte                    *
     718                    ;******************************************************************************
     719                    
     720                    ;******************************************************************************
     721                    ;*                                                                            *
     722                    ;* Using -g (debug) with optimization (-o2) may disable key optimizations!    *
     723                    ;*                                                                            *
     724                    ;******************************************************************************
     725 00000200           _input_sample:
     726                    ;** --------------------------------------------------------------------------*
     727                            .dwcfi  cfa_offset, 0
     728                            .dwcfi  save_reg_to_reg, 228, 19
     729                    $C$DW$44        .dwtag  DW_TAG_variable, DW_AT_name("CHANNEL_data")
     730                            .dwattr $C$DW$44, DW_AT_TI_symbol_name("_CHANNEL_data")
     731                            .dwattr $C$DW$44, DW_AT_type(*$C$DW$T$8)
     732                            .dwattr $C$DW$44, DW_AT_location[DW_OP_reg21]
     733                            .dwpsn  file "../c6713dskinit.c",line 84,column 2,is_stmt
     734 00000200 01800428-            MVKL    .S1     _poll,A3
     735 00000204 01800068-            MVKH    .S1     _poll,A3
     736 00000208 008C0264             LDW     .D1T1   *A3,A1            ; |84| 
     737 0000020c 0200002A!            MVKL    .S2     _DSK6713_AIC23_codecdatahandle,B4
     738 00000210 0200006A!            MVKH    .S2     _DSK6713_AIC23_codecdatahandle,B4
     739 00000214 029002E4             LDW     .D2T1   *B4,A5            ; |84| 
     740 00000218 00000000             NOP             1
     741 0000021c 90000D10     [!A1]   B       .S1     $C$L16            ; |84| 
     742 00000220 00008000             NOP             5
     743                               ; BRANCHCC OCCURS {$C$L16}        ; |84| 
     744                    ;** --------------------------------------------------------------------------*
     745                            .dwpsn  file "C:/ti/CCCStudio_v3.1/C6000/csl/include/csl_mcbsp.h",line 233,column 3,is_stmt
     746 00000224 01946264             LDW     .D1T1   *+A5(12),A3       ; |233| 
     747 00000228 00006000             NOP             4
     748 0000022c 020D0058             ADD     .L1     8,A3,A4           ; |233| 
     749 00000230 01900264             LDW     .D1T1   *A4,A3            ; |233| 
     750 00000234 00006000             NOP             4
     751 00000238 008C4F58             AND     .L1     2,A3,A1           ; |233| 
     752                    
     753 00000240 80000511     [ A1]   B       .S1     $C$L16            ; |233| 
     754 00000244 91900264  || [!A1]   LDW     .D1T1   *A4,A3            ; |233| (P) <0,0>  ^ 
     755                    
     756 00000248 900000AA     [!A1]   MVK     .S2     0x1,B0
     757 0000024c 00004000             NOP             3
     758 00000250 008C4F58             AND     .L1     2,A3,A1           ; |233| (P) <0,5>  ^ 
     759                               ; BRANCHCC OCCURS {$C$L16}        ; |233| 
     760                    ;*----------------------------------------------------------------------------*
     761                    ;*   SOFTWARE PIPELINE INFORMATION
     762                    ;*
     763                    ;*      Loop found in file               : ../c6713dskinit.c
     764                    ;*      Loop inlined from                : C:/ti/CCCStudio_v3.1/C6000/csl/include/csl_mcbsp.h
     765                    ;*      Loop source line                 : 84
     766                    ;*      Loop closing brace source line   : 233
     767                    ;*      Known Minimum Trip Count         : 1                    
     768                    ;*      Known Max Trip Count Factor      : 1
     769                    ;*      Loop Carried Dependency Bound(^) : 7
     770                    ;*      Unpartitioned Resource Bound     : 1
TMS320C6x Assembler PC v7.4.18 Tue Jan 02 08:53:48 2018

Tools Copyright (c) 1996-2015 Texas Instruments Incorporated
C:\Users\Pc\AppData\Local\Temp\0378410                               PAGE   15

     771                    ;*      Partitioned Resource Bound(*)    : 1
     772                    ;*      Resource Partition:
     773                    ;*                                A-side   B-side
     774                    ;*      .L units                     0        0     
     775                    ;*      .S units                     0        1*    
     776                    ;*      .D units                     1*       0     
     777                    ;*      .M units                     0        0     
     778                    ;*      .X cross paths               0        0     
     779                    ;*      .T address paths             1*       0     
     780                    ;*      Long read paths              0        0     
     781                    ;*      Long write paths             0        0     
     782                    ;*      Logical  ops (.LS)           1        0     (.L or .S unit)
     783                    ;*      Addition ops (.LSD)          0        1     (.L or .S or .D unit)
     784                    ;*      Bound(.L .S .LS)             1*       1*    
     785                    ;*      Bound(.L .S .D .LS .LSD)     1*       1*    
     786                    ;*
     787                    ;*      Searching for software pipeline schedule at ...
     788                    ;*         ii = 7  Schedule found with 2 iterations in parallel
     789                    ;*      Done
     790                    ;*
     791                    ;*      Loop is interruptible
     792                    ;*      Collapsed epilog stages       : 1
     793                    ;*      Prolog not removed
     794                    ;*      Collapsed prolog stages       : 0
     795                    ;*
     796                    ;*      Minimum required memory pad   : 0 bytes
     797                    ;*
     798                    ;*      Minimum safe trip count       : 1
     799                    ;*----------------------------------------------------------------------------*
     800 00000254           $C$L13:    ; PIPED LOOP PROLOG
     801                    ;** --------------------------------------------------------------------------*
     802 00000254           $C$L14:    ; PIPED LOOP KERNEL
     803 00000254           $C$DW$L$_input_sample$4$B:
     804 00000254 800000FA     [ A1]   ZERO    .L2     B0                ; |233| <0,6>  ^ 
     805                    
     806 00000258 20000293     [ B0]   B       .S2     $C$L14            ; |233| <0,7> 
     807 0000025c 21900264  || [ B0]   LDW     .D1T1   *A4,A3            ; |233| <1,0>  ^ 
     808                    
     809 00000260 00006000             NOP             4
     810 00000264 008C4F58             AND     .L1     2,A3,A1           ; |233| <1,5>  ^ 
     811 00000268           $C$DW$L$_input_sample$4$E:
     812                    ;** --------------------------------------------------------------------------*
     813 00000268           $C$L15:    ; PIPED LOOP EPILOG
     814                    ;** --------------------------------------------------------------------------*
     815 00000268           $C$L16:    
     816                            .dwpsn  file "C:/ti/CCCStudio_v3.1/C6000/csl/include/csl_mcbsp.h",line 221,column 3,is_stmt
     817 00000268 01948264             LDW     .D1T1   *+A5(16),A3       ; |221| 
     818 0000026c 00006000             NOP             4
     819 00000270 018C0264             LDW     .D1T1   *A3,A3            ; |221| 
     820 00000274 00002000             NOP             2
     821                            .dwpsn  file "../c6713dskinit.c",line 85,column 4,is_stmt
     822 00000278 0200002A-            MVKL    .S2     _AIC_data,B4
     823 0000027c 0200006A-            MVKH    .S2     _AIC_data,B4
     824 00000280 019002F4             STW     .D2T1   A3,*B4            ; |85| 
     825                            .dwpsn  file "../c6713dskinit.c",line 88,column 2,is_stmt
TMS320C6x Assembler PC v7.4.18 Tue Jan 02 08:53:48 2018

Tools Copyright (c) 1996-2015 Texas Instruments Incorporated
C:\Users\Pc\AppData\Local\Temp\0378410                               PAGE   16

     826 00000284 029002C6             LDH     .D2T2   *B4,B5            ; |88| 
     827                            .dwpsn  file "../c6713dskinit.c",line 89,column 2,is_stmt
     828 00000288 019022C4             LDH     .D2T1   *+B4(2),A3        ; |89| 
     829 0000028c 00006000             NOP             4
     830 00000290 019002D4             STH     .D2T1   A3,*B4            ; |89| 
     831                            .dwpsn  file "../c6713dskinit.c",line 90,column 2,is_stmt
     832 00000294 01905058             ADD     .L1X    2,B4,A3
     833 00000298 028C0256             STH     .D1T2   B5,*A3            ; |90| 
     834                            .dwpsn  file "../c6713dskinit.c",line 92,column 2,is_stmt
     835 0000029c 021002E4             LDW     .D2T1   *B4,A4            ; |92| 
     836                            .dwpsn  file "../c6713dskinit.c",line 93,column 1,is_stmt
     837                            .dwcfi  cfa_offset, 0
     838                    $C$DW$45        .dwtag  DW_TAG_TI_branch
     839                            .dwattr $C$DW$45, DW_AT_low_pc(0x00)
     840                            .dwattr $C$DW$45, DW_AT_TI_return
     841 000002a0 000C0362             RET     .S2     B3                ; |93| 
     842 000002a4 00008000             NOP             5
     843                               ; BRANCH OCCURS {B3}              ; |93| 
     844                    
     845                    $C$DW$46        .dwtag  DW_TAG_TI_loop
     846                            .dwattr $C$DW$46, DW_AT_name("C:\\Users\\Pc\\AppData\\Local\\Temp\\0378410:$C$L14:1:1514879628
     847                            .dwattr $C$DW$46, DW_AT_TI_begin_file("C:/ti/CCCStudio_v3.1/C6000/csl/include/csl_mcbsp.h")
     848                            .dwattr $C$DW$46, DW_AT_TI_begin_line(0x54)
     849                            .dwattr $C$DW$46, DW_AT_TI_end_line(0xe9)
     850                    $C$DW$47        .dwtag  DW_TAG_TI_loop_range
     851                            .dwattr $C$DW$47, DW_AT_low_pc($C$DW$L$_input_sample$4$B)
     852                            .dwattr $C$DW$47, DW_AT_high_pc($C$DW$L$_input_sample$4$E)
     853                            .dwendtag $C$DW$46
     854                    
     855                            .dwattr $C$DW$43, DW_AT_TI_end_file("../c6713dskinit.c")
     856                            .dwattr $C$DW$43, DW_AT_TI_end_line(0x5d)
     857                            .dwattr $C$DW$43, DW_AT_TI_end_column(0x01)
     858                            .dwendentry
     859                            .dwendtag $C$DW$43
     860                    
     861 000002a8                   .sect   ".text"
     862                            .clink
     863                            .global _input_right_sample
     864                    
     865                    $C$DW$48        .dwtag  DW_TAG_subprogram, DW_AT_name("input_right_sample")
     866                            .dwattr $C$DW$48, DW_AT_low_pc(_input_right_sample)
     867                            .dwattr $C$DW$48, DW_AT_high_pc(0x00)
     868                            .dwattr $C$DW$48, DW_AT_TI_symbol_name("_input_right_sample")
     869                            .dwattr $C$DW$48, DW_AT_external
     870                            .dwattr $C$DW$48, DW_AT_type(*$C$DW$T$8)
     871                            .dwattr $C$DW$48, DW_AT_TI_begin_file("../c6713dskinit.c")
     872                            .dwattr $C$DW$48, DW_AT_TI_begin_line(0x66)
     873                            .dwattr $C$DW$48, DW_AT_TI_begin_column(0x07)
     874                            .dwattr $C$DW$48, DW_AT_TI_max_frame_size(0x00)
     875                            .dwpsn  file "../c6713dskinit.c",line 103,column 1,is_stmt,address _input_right_sample
     876                    
     877                            .dwfde $C$DW$CIE, _input_right_sample
     878                    
     879                    ;******************************************************************************
     880                    ;* FUNCTION NAME: input_right_sample                                          *
TMS320C6x Assembler PC v7.4.18 Tue Jan 02 08:53:48 2018

Tools Copyright (c) 1996-2015 Texas Instruments Incorporated
C:\Users\Pc\AppData\Local\Temp\0378410                               PAGE   17

     881                    ;*                                                                            *
     882                    ;*   Regs Modified     : A1,A3,A4,A5,B0,B4                                    *
     883                    ;*   Regs Used         : A1,A3,A4,A5,B0,B3,B4                                 *
     884                    ;*   Local Frame Size  : 0 Args + 0 Auto + 0 Save = 0 byte                    *
     885                    ;******************************************************************************
     886                    
     887                    ;******************************************************************************
     888                    ;*                                                                            *
     889                    ;* Using -g (debug) with optimization (-o2) may disable key optimizations!    *
     890                    ;*                                                                            *
     891                    ;******************************************************************************
     892 000002a8           _input_right_sample:
     893                    ;** --------------------------------------------------------------------------*
     894                            .dwcfi  cfa_offset, 0
     895                            .dwcfi  save_reg_to_reg, 228, 19
     896                            .dwpsn  file "../c6713dskinit.c",line 104,column 2,is_stmt
     897 000002a8 01800428-            MVKL    .S1     _poll,A3
     898 000002ac 01800068-            MVKH    .S1     _poll,A3
     899 000002b0 008C0264             LDW     .D1T1   *A3,A1            ; |104| 
     900 000002b4 0200002A!            MVKL    .S2     _DSK6713_AIC23_codecdatahandle,B4
     901 000002b8 0200006A!            MVKH    .S2     _DSK6713_AIC23_codecdatahandle,B4
     902 000002bc 029002E4             LDW     .D2T1   *B4,A5            ; |104| 
     903 000002c0 00000000             NOP             1
     904 000002c4 90000A10     [!A1]   B       .S1     $C$L20            ; |104| 
     905 000002c8 00008000             NOP             5
     906                               ; BRANCHCC OCCURS {$C$L20}        ; |104| 
     907                    ;** --------------------------------------------------------------------------*
     908                            .dwpsn  file "C:/ti/CCCStudio_v3.1/C6000/csl/include/csl_mcbsp.h",line 233,column 3,is_stmt
     909 000002cc 01946264             LDW     .D1T1   *+A5(12),A3       ; |233| 
     910 000002d0 00006000             NOP             4
     911 000002d4 020D0058             ADD     .L1     8,A3,A4           ; |233| 
     912 000002d8 01900264             LDW     .D1T1   *A4,A3            ; |233| 
     913 000002dc 00006000             NOP             4
     914 000002e0 008C4F58             AND     .L1     2,A3,A1           ; |233| 
     915                    
     916 000002e4 80000611     [ A1]   B       .S1     $C$L20            ; |233| 
     917 000002e8 91900264  || [!A1]   LDW     .D1T1   *A4,A3            ; |233| (P) <0,0>  ^ 
     918                    
     919 000002ec 900000AA     [!A1]   MVK     .S2     0x1,B0
     920 000002f0 00004000             NOP             3
     921 000002f4 008C4F58             AND     .L1     2,A3,A1           ; |233| (P) <0,5>  ^ 
     922                               ; BRANCHCC OCCURS {$C$L20}        ; |233| 
     923                    ;*----------------------------------------------------------------------------*
     924                    ;*   SOFTWARE PIPELINE INFORMATION
     925                    ;*
     926                    ;*      Loop found in file               : ../c6713dskinit.c
     927                    ;*      Loop inlined from                : C:/ti/CCCStudio_v3.1/C6000/csl/include/csl_mcbsp.h
     928                    ;*      Loop source line                 : 104
     929                    ;*      Loop closing brace source line   : 233
     930                    ;*      Known Minimum Trip Count         : 1                    
     931                    ;*      Known Max Trip Count Factor      : 1
     932                    ;*      Loop Carried Dependency Bound(^) : 7
     933                    ;*      Unpartitioned Resource Bound     : 1
     934                    ;*      Partitioned Resource Bound(*)    : 1
     935                    ;*      Resource Partition:
TMS320C6x Assembler PC v7.4.18 Tue Jan 02 08:53:48 2018

Tools Copyright (c) 1996-2015 Texas Instruments Incorporated
C:\Users\Pc\AppData\Local\Temp\0378410                               PAGE   18

     936                    ;*                                A-side   B-side
     937                    ;*      .L units                     0        0     
     938                    ;*      .S units                     0        1*    
     939                    ;*      .D units                     1*       0     
     940                    ;*      .M units                     0        0     
     941                    ;*      .X cross paths               0        0     
     942                    ;*      .T address paths             1*       0     
     943                    ;*      Long read paths              0        0     
     944                    ;*      Long write paths             0        0     
     945                    ;*      Logical  ops (.LS)           1        0     (.L or .S unit)
     946                    ;*      Addition ops (.LSD)          0        1     (.L or .S or .D unit)
     947                    ;*      Bound(.L .S .LS)             1*       1*    
     948                    ;*      Bound(.L .S .D .LS .LSD)     1*       1*    
     949                    ;*
     950                    ;*      Searching for software pipeline schedule at ...
     951                    ;*         ii = 7  Schedule found with 2 iterations in parallel
     952                    ;*      Done
     953                    ;*
     954                    ;*      Loop is interruptible
     955                    ;*      Collapsed epilog stages       : 1
     956                    ;*      Prolog not removed
     957                    ;*      Collapsed prolog stages       : 0
     958                    ;*
     959                    ;*      Minimum required memory pad   : 0 bytes
     960                    ;*
     961                    ;*      Minimum safe trip count       : 1
     962                    ;*----------------------------------------------------------------------------*
     963 000002f8           $C$L17:    ; PIPED LOOP PROLOG
     964                    ;** --------------------------------------------------------------------------*
     965 000002f8           $C$L18:    ; PIPED LOOP KERNEL
     966 000002f8           $C$DW$L$_input_right_sample$4$B:
     967 000002f8 800000FA     [ A1]   ZERO    .L2     B0                ; |233| <0,6>  ^ 
     968                    
     969 00000300 2FFFFF13     [ B0]   B       .S2     $C$L18            ; |233| <0,7> 
     970 00000304 21900264  || [ B0]   LDW     .D1T1   *A4,A3            ; |233| <1,0>  ^ 
     971                    
     972 00000308 00006000             NOP             4
     973 0000030c 008C4F58             AND     .L1     2,A3,A1           ; |233| <1,5>  ^ 
     974 00000310           $C$DW$L$_input_right_sample$4$E:
     975                    ;** --------------------------------------------------------------------------*
     976 00000310           $C$L19:    ; PIPED LOOP EPILOG
     977                    ;** --------------------------------------------------------------------------*
     978 00000310           $C$L20:    
     979                            .dwpsn  file "C:/ti/CCCStudio_v3.1/C6000/csl/include/csl_mcbsp.h",line 221,column 3,is_stmt
     980 00000310 01948264             LDW     .D1T1   *+A5(16),A3       ; |221| 
     981 00000314 00006000             NOP             4
     982 00000318 020C0264             LDW     .D1T1   *A3,A4            ; |221| 
     983 0000031c 00002000             NOP             2
     984                            .dwpsn  file "../c6713dskinit.c",line 105,column 3,is_stmt
     985 00000320 01800028-            MVKL    .S1     _AIC_data,A3
     986 00000324 01800068-            MVKH    .S1     _AIC_data,A3
     987 00000328 020C0274             STW     .D1T1   A4,*A3            ; |105| 
     988                            .dwpsn  file "../c6713dskinit.c",line 106,column 2,is_stmt
     989 0000032c 020C0244             LDH     .D1T1   *A3,A4            ; |106| 
     990                            .dwpsn  file "../c6713dskinit.c",line 107,column 1,is_stmt
TMS320C6x Assembler PC v7.4.18 Tue Jan 02 08:53:48 2018

Tools Copyright (c) 1996-2015 Texas Instruments Incorporated
C:\Users\Pc\AppData\Local\Temp\0378410                               PAGE   19

     991                            .dwcfi  cfa_offset, 0
     992                    $C$DW$49        .dwtag  DW_TAG_TI_branch
     993                            .dwattr $C$DW$49, DW_AT_low_pc(0x00)
     994                            .dwattr $C$DW$49, DW_AT_TI_return
     995 00000330 000C0362             RET     .S2     B3                ; |107| 
     996 00000334 00008000             NOP             5
     997                               ; BRANCH OCCURS {B3}              ; |107| 
     998                    
     999                    $C$DW$50        .dwtag  DW_TAG_TI_loop
    1000                            .dwattr $C$DW$50, DW_AT_name("C:\\Users\\Pc\\AppData\\Local\\Temp\\0378410:$C$L18:1:1514879628
    1001                            .dwattr $C$DW$50, DW_AT_TI_begin_file("C:/ti/CCCStudio_v3.1/C6000/csl/include/csl_mcbsp.h")
    1002                            .dwattr $C$DW$50, DW_AT_TI_begin_line(0x68)
    1003                            .dwattr $C$DW$50, DW_AT_TI_end_line(0xe9)
    1004                    $C$DW$51        .dwtag  DW_TAG_TI_loop_range
    1005                            .dwattr $C$DW$51, DW_AT_low_pc($C$DW$L$_input_right_sample$4$B)
    1006                            .dwattr $C$DW$51, DW_AT_high_pc($C$DW$L$_input_right_sample$4$E)
    1007                            .dwendtag $C$DW$50
    1008                    
    1009                            .dwattr $C$DW$48, DW_AT_TI_end_file("../c6713dskinit.c")
    1010                            .dwattr $C$DW$48, DW_AT_TI_end_line(0x6b)
    1011                            .dwattr $C$DW$48, DW_AT_TI_end_column(0x01)
    1012                            .dwendentry
    1013                            .dwendtag $C$DW$48
    1014                    
    1015 00000338                   .sect   ".text"
    1016                            .clink
    1017                            .global _input_left_sample
    1018                    
    1019                    $C$DW$52        .dwtag  DW_TAG_subprogram, DW_AT_name("input_left_sample")
    1020                            .dwattr $C$DW$52, DW_AT_low_pc(_input_left_sample)
    1021                            .dwattr $C$DW$52, DW_AT_high_pc(0x00)
    1022                            .dwattr $C$DW$52, DW_AT_TI_symbol_name("_input_left_sample")
    1023                            .dwattr $C$DW$52, DW_AT_external
    1024                            .dwattr $C$DW$52, DW_AT_type(*$C$DW$T$8)
    1025                            .dwattr $C$DW$52, DW_AT_TI_begin_file("../c6713dskinit.c")
    1026                            .dwattr $C$DW$52, DW_AT_TI_begin_line(0x5f)
    1027                            .dwattr $C$DW$52, DW_AT_TI_begin_column(0x07)
    1028                            .dwattr $C$DW$52, DW_AT_TI_max_frame_size(0x00)
    1029                            .dwpsn  file "../c6713dskinit.c",line 96,column 1,is_stmt,address _input_left_sample
    1030                    
    1031                            .dwfde $C$DW$CIE, _input_left_sample
    1032                    
    1033                    ;******************************************************************************
    1034                    ;* FUNCTION NAME: input_left_sample                                           *
    1035                    ;*                                                                            *
    1036                    ;*   Regs Modified     : A1,A3,A4,A5,B0,B4                                    *
    1037                    ;*   Regs Used         : A1,A3,A4,A5,B0,B3,B4                                 *
    1038                    ;*   Local Frame Size  : 0 Args + 0 Auto + 0 Save = 0 byte                    *
    1039                    ;******************************************************************************
    1040                    
    1041                    ;******************************************************************************
    1042                    ;*                                                                            *
    1043                    ;* Using -g (debug) with optimization (-o2) may disable key optimizations!    *
    1044                    ;*                                                                            *
    1045                    ;******************************************************************************
TMS320C6x Assembler PC v7.4.18 Tue Jan 02 08:53:48 2018

Tools Copyright (c) 1996-2015 Texas Instruments Incorporated
C:\Users\Pc\AppData\Local\Temp\0378410                               PAGE   20

    1046 00000338           _input_left_sample:
    1047                    ;** --------------------------------------------------------------------------*
    1048                            .dwcfi  cfa_offset, 0
    1049                            .dwcfi  save_reg_to_reg, 228, 19
    1050                            .dwpsn  file "../c6713dskinit.c",line 97,column 2,is_stmt
    1051 00000338 01800428-            MVKL    .S1     _poll,A3
    1052 0000033c 01800068-            MVKH    .S1     _poll,A3
    1053 00000340 008C0264             LDW     .D1T1   *A3,A1            ; |97| 
    1054 00000344 0200002A!            MVKL    .S2     _DSK6713_AIC23_codecdatahandle,B4
    1055 00000348 0200006A!            MVKH    .S2     _DSK6713_AIC23_codecdatahandle,B4
    1056 0000034c 029002E4             LDW     .D2T1   *B4,A5            ; |97| 
    1057 00000350 00000000             NOP             1
    1058 00000354 90000B90     [!A1]   B       .S1     $C$L24            ; |97| 
    1059 00000358 00008000             NOP             5
    1060                               ; BRANCHCC OCCURS {$C$L24}        ; |97| 
    1061                    ;** --------------------------------------------------------------------------*
    1062                            .dwpsn  file "C:/ti/CCCStudio_v3.1/C6000/csl/include/csl_mcbsp.h",line 233,column 3,is_stmt
    1063 0000035c 01946264             LDW     .D1T1   *+A5(12),A3       ; |233| 
    1064 00000360 00006000             NOP             4
    1065 00000364 020D0058             ADD     .L1     8,A3,A4           ; |233| 
    1066 00000368 01900264             LDW     .D1T1   *A4,A3            ; |233| 
    1067 0000036c 00006000             NOP             4
    1068 00000370 008C4F58             AND     .L1     2,A3,A1           ; |233| 
    1069                    
    1070 00000374 80000791     [ A1]   B       .S1     $C$L24            ; |233| 
    1071 00000378 91900264  || [!A1]   LDW     .D1T1   *A4,A3            ; |233| (P) <0,0>  ^ 
    1072                    
    1073 0000037c 900000AA     [!A1]   MVK     .S2     0x1,B0
    1074 00000380 00004000             NOP             3
    1075 00000384 008C4F58             AND     .L1     2,A3,A1           ; |233| (P) <0,5>  ^ 
    1076                               ; BRANCHCC OCCURS {$C$L24}        ; |233| 
    1077                    ;*----------------------------------------------------------------------------*
    1078                    ;*   SOFTWARE PIPELINE INFORMATION
    1079                    ;*
    1080                    ;*      Loop found in file               : ../c6713dskinit.c
    1081                    ;*      Loop inlined from                : C:/ti/CCCStudio_v3.1/C6000/csl/include/csl_mcbsp.h
    1082                    ;*      Loop source line                 : 97
    1083                    ;*      Loop closing brace source line   : 233
    1084                    ;*      Known Minimum Trip Count         : 1                    
    1085                    ;*      Known Max Trip Count Factor      : 1
    1086                    ;*      Loop Carried Dependency Bound(^) : 7
    1087                    ;*      Unpartitioned Resource Bound     : 1
    1088                    ;*      Partitioned Resource Bound(*)    : 1
    1089                    ;*      Resource Partition:
    1090                    ;*                                A-side   B-side
    1091                    ;*      .L units                     0        0     
    1092                    ;*      .S units                     0        1*    
    1093                    ;*      .D units                     1*       0     
    1094                    ;*      .M units                     0        0     
    1095                    ;*      .X cross paths               0        0     
    1096                    ;*      .T address paths             1*       0     
    1097                    ;*      Long read paths              0        0     
    1098                    ;*      Long write paths             0        0     
    1099                    ;*      Logical  ops (.LS)           1        0     (.L or .S unit)
    1100                    ;*      Addition ops (.LSD)          0        1     (.L or .S or .D unit)
TMS320C6x Assembler PC v7.4.18 Tue Jan 02 08:53:48 2018

Tools Copyright (c) 1996-2015 Texas Instruments Incorporated
C:\Users\Pc\AppData\Local\Temp\0378410                               PAGE   21

    1101                    ;*      Bound(.L .S .LS)             1*       1*    
    1102                    ;*      Bound(.L .S .D .LS .LSD)     1*       1*    
    1103                    ;*
    1104                    ;*      Searching for software pipeline schedule at ...
    1105                    ;*         ii = 7  Schedule found with 2 iterations in parallel
    1106                    ;*      Done
    1107                    ;*
    1108                    ;*      Loop is interruptible
    1109                    ;*      Collapsed epilog stages       : 1
    1110                    ;*      Prolog not removed
    1111                    ;*      Collapsed prolog stages       : 0
    1112                    ;*
    1113                    ;*      Minimum required memory pad   : 0 bytes
    1114                    ;*
    1115                    ;*      Minimum safe trip count       : 1
    1116                    ;*----------------------------------------------------------------------------*
    1117 00000388           $C$L21:    ; PIPED LOOP PROLOG
    1118                    ;** --------------------------------------------------------------------------*
    1119 00000388           $C$L22:    ; PIPED LOOP KERNEL
    1120 00000388           $C$DW$L$_input_left_sample$4$B:
    1121 00000388 800000FA     [ A1]   ZERO    .L2     B0                ; |233| <0,6>  ^ 
    1122                    
    1123 0000038c 20000113     [ B0]   B       .S2     $C$L22            ; |233| <0,7> 
    1124 00000390 21900264  || [ B0]   LDW     .D1T1   *A4,A3            ; |233| <1,0>  ^ 
    1125                    
    1126 00000394 00006000             NOP             4
    1127 00000398 008C4F58             AND     .L1     2,A3,A1           ; |233| <1,5>  ^ 
    1128 0000039c           $C$DW$L$_input_left_sample$4$E:
    1129                    ;** --------------------------------------------------------------------------*
    1130 0000039c           $C$L23:    ; PIPED LOOP EPILOG
    1131                    ;** --------------------------------------------------------------------------*
    1132 0000039c           $C$L24:    
    1133                            .dwpsn  file "C:/ti/CCCStudio_v3.1/C6000/csl/include/csl_mcbsp.h",line 221,column 3,is_stmt
    1134 0000039c 01948264             LDW     .D1T1   *+A5(16),A3       ; |221| 
    1135 000003a0 00006000             NOP             4
    1136 000003a4 018C0264             LDW     .D1T1   *A3,A3            ; |221| 
    1137 000003a8 00002000             NOP             2
    1138                            .dwpsn  file "../c6713dskinit.c",line 98,column 3,is_stmt
    1139 000003ac 0200002A-            MVKL    .S2     _AIC_data,B4
    1140 000003b0 0200006A-            MVKH    .S2     _AIC_data,B4
    1141 000003b4 019002F4             STW     .D2T1   A3,*B4            ; |98| 
    1142                            .dwpsn  file "../c6713dskinit.c",line 99,column 2,is_stmt
    1143 000003b8 021022C4             LDH     .D2T1   *+B4(2),A4        ; |99| 
    1144                            .dwpsn  file "../c6713dskinit.c",line 100,column 1,is_stmt
    1145                            .dwcfi  cfa_offset, 0
    1146                    $C$DW$53        .dwtag  DW_TAG_TI_branch
    1147                            .dwattr $C$DW$53, DW_AT_low_pc(0x00)
    1148                            .dwattr $C$DW$53, DW_AT_TI_return
    1149 000003bc 000C0362             RET     .S2     B3                ; |100| 
    1150 000003c0 00008000             NOP             5
    1151                               ; BRANCH OCCURS {B3}              ; |100| 
    1152                    
    1153                    $C$DW$54        .dwtag  DW_TAG_TI_loop
    1154                            .dwattr $C$DW$54, DW_AT_name("C:\\Users\\Pc\\AppData\\Local\\Temp\\0378410:$C$L22:1:1514879628
    1155                            .dwattr $C$DW$54, DW_AT_TI_begin_file("C:/ti/CCCStudio_v3.1/C6000/csl/include/csl_mcbsp.h")
TMS320C6x Assembler PC v7.4.18 Tue Jan 02 08:53:48 2018

Tools Copyright (c) 1996-2015 Texas Instruments Incorporated
C:\Users\Pc\AppData\Local\Temp\0378410                               PAGE   22

    1156                            .dwattr $C$DW$54, DW_AT_TI_begin_line(0x61)
    1157                            .dwattr $C$DW$54, DW_AT_TI_end_line(0xe9)
    1158                    $C$DW$55        .dwtag  DW_TAG_TI_loop_range
    1159                            .dwattr $C$DW$55, DW_AT_low_pc($C$DW$L$_input_left_sample$4$B)
    1160                            .dwattr $C$DW$55, DW_AT_high_pc($C$DW$L$_input_left_sample$4$E)
    1161                            .dwendtag $C$DW$54
    1162                    
    1163                            .dwattr $C$DW$52, DW_AT_TI_end_file("../c6713dskinit.c")
    1164                            .dwattr $C$DW$52, DW_AT_TI_end_line(0x64)
    1165                            .dwattr $C$DW$52, DW_AT_TI_end_column(0x01)
    1166                            .dwendentry
    1167                            .dwendtag $C$DW$52
    1168                    
    1169 000003c4                   .sect   ".text"
    1170                            .clink
    1171                            .global _c6713_dsk_init
    1172                    
    1173                    $C$DW$56        .dwtag  DW_TAG_subprogram, DW_AT_name("c6713_dsk_init")
    1174                            .dwattr $C$DW$56, DW_AT_low_pc(_c6713_dsk_init)
    1175                            .dwattr $C$DW$56, DW_AT_high_pc(0x00)
    1176                            .dwattr $C$DW$56, DW_AT_TI_symbol_name("_c6713_dsk_init")
    1177                            .dwattr $C$DW$56, DW_AT_external
    1178                            .dwattr $C$DW$56, DW_AT_TI_begin_file("../c6713dskinit.c")
    1179                            .dwattr $C$DW$56, DW_AT_TI_begin_line(0x07)
    1180                            .dwattr $C$DW$56, DW_AT_TI_begin_column(0x06)
    1181                            .dwattr $C$DW$56, DW_AT_TI_max_frame_size(0x08)
    1182                            .dwpsn  file "../c6713dskinit.c",line 8,column 1,is_stmt,address _c6713_dsk_init
    1183                    
    1184                            .dwfde $C$DW$CIE, _c6713_dsk_init
    1185                    
    1186                    ;******************************************************************************
    1187                    ;* FUNCTION NAME: c6713_dsk_init                                              *
    1188                    ;*                                                                            *
    1189                    ;*   Regs Modified     : A0,A1,A2,A3,A4,A5,A6,A7,A8,A9,B0,B1,B2,B3,B4,B5,B6,  *
    1190                    ;*                           B7,B8,B9,SP                                      *
    1191                    ;*   Regs Used         : A0,A1,A2,A3,A4,A5,A6,A7,A8,A9,B0,B1,B2,B3,B4,B5,B6,  *
    1192                    ;*                           B7,B8,B9,DP,SP                                   *
    1193                    ;*   Local Frame Size  : 0 Args + 0 Auto + 4 Save = 4 byte                    *
    1194                    ;******************************************************************************
    1195                    
    1196                    ;******************************************************************************
    1197                    ;*                                                                            *
    1198                    ;* Using -g (debug) with optimization (-o2) may disable key optimizations!    *
    1199                    ;*                                                                            *
    1200                    ;******************************************************************************
    1201 000003c4           _c6713_dsk_init:
    1202                    ;** --------------------------------------------------------------------------*
    1203                            .dwcfi  cfa_offset, 0
    1204                            .dwcfi  save_reg_to_reg, 228, 19
    1205 000003c4 01BC54F6             STW     .D2T2   B3,*SP--(8)       ; |8| 
    1206                            .dwcfi  cfa_offset, 8
    1207                            .dwcfi  save_reg_to_mem, 19, 0
    1208                    $C$DW$57        .dwtag  DW_TAG_variable, DW_AT_name("x7")
    1209                            .dwattr $C$DW$57, DW_AT_TI_symbol_name("_x7")
    1210                            .dwattr $C$DW$57, DW_AT_type(*$C$DW$T$10)
TMS320C6x Assembler PC v7.4.18 Tue Jan 02 08:53:48 2018

Tools Copyright (c) 1996-2015 Texas Instruments Incorporated
C:\Users\Pc\AppData\Local\Temp\0378410                               PAGE   23

    1211                            .dwattr $C$DW$57, DW_AT_location[DW_OP_reg22]
    1212                    $C$DW$58        .dwtag  DW_TAG_variable, DW_AT_name("x6")
    1213                            .dwattr $C$DW$58, DW_AT_TI_symbol_name("_x6")
    1214                            .dwattr $C$DW$58, DW_AT_type(*$C$DW$T$10)
    1215                            .dwattr $C$DW$58, DW_AT_location[DW_OP_reg8]
    1216                    $C$DW$59        .dwtag  DW_TAG_variable, DW_AT_name("x5")
    1217                            .dwattr $C$DW$59, DW_AT_TI_symbol_name("_x5")
    1218                            .dwattr $C$DW$59, DW_AT_type(*$C$DW$T$10)
    1219                            .dwattr $C$DW$59, DW_AT_location[DW_OP_reg20]
    1220                    $C$DW$60        .dwtag  DW_TAG_variable, DW_AT_name("x4")
    1221                            .dwattr $C$DW$60, DW_AT_TI_symbol_name("_x4")
    1222                            .dwattr $C$DW$60, DW_AT_type(*$C$DW$T$10)
    1223                            .dwattr $C$DW$60, DW_AT_location[DW_OP_reg7]
    1224                    $C$DW$61        .dwtag  DW_TAG_variable, DW_AT_name("x3")
    1225                            .dwattr $C$DW$61, DW_AT_TI_symbol_name("_x3")
    1226                            .dwattr $C$DW$61, DW_AT_type(*$C$DW$T$10)
    1227                            .dwattr $C$DW$61, DW_AT_location[DW_OP_reg25]
    1228                    $C$DW$62        .dwtag  DW_TAG_variable, DW_AT_name("x2")
    1229                            .dwattr $C$DW$62, DW_AT_TI_symbol_name("_x2")
    1230                            .dwattr $C$DW$62, DW_AT_type(*$C$DW$T$10)
    1231                            .dwattr $C$DW$62, DW_AT_location[DW_OP_reg6]
    1232                    $C$DW$63        .dwtag  DW_TAG_variable, DW_AT_name("x1")
    1233                            .dwattr $C$DW$63, DW_AT_TI_symbol_name("_x1")
    1234                            .dwattr $C$DW$63, DW_AT_type(*$C$DW$T$10)
    1235                            .dwattr $C$DW$63, DW_AT_location[DW_OP_reg24]
    1236                    $C$DW$64        .dwtag  DW_TAG_variable, DW_AT_name("x0")
    1237                            .dwattr $C$DW$64, DW_AT_TI_symbol_name("_x0")
    1238                            .dwattr $C$DW$64, DW_AT_type(*$C$DW$T$10)
    1239                            .dwattr $C$DW$64, DW_AT_location[DW_OP_reg23]
    1240                    $C$DW$65        .dwtag  DW_TAG_variable, DW_AT_name("base")
    1241                            .dwattr $C$DW$65, DW_AT_TI_symbol_name("_base")
    1242                            .dwattr $C$DW$65, DW_AT_type(*$C$DW$T$21)
    1243                            .dwattr $C$DW$65, DW_AT_location[DW_OP_reg5]
    1244                    $C$DW$66        .dwtag  DW_TAG_variable, DW_AT_name("gie")
    1245                            .dwattr $C$DW$66, DW_AT_TI_symbol_name("_gie")
    1246                            .dwattr $C$DW$66, DW_AT_type(*$C$DW$T$19)
    1247                            .dwattr $C$DW$66, DW_AT_location[DW_OP_reg21]
    1248                            .dwpsn  file "../c6713dskinit.c",line 9,column 1,is_stmt
    1249                    $C$DW$67        .dwtag  DW_TAG_TI_branch
    1250                            .dwattr $C$DW$67, DW_AT_low_pc(0x00)
    1251                            .dwattr $C$DW$67, DW_AT_name("_DSK6713_init")
    1252                            .dwattr $C$DW$67, DW_AT_TI_call
    1253 000003c8 0FFF8810!            CALL    .S1     _DSK6713_init     ; |9| 
    1254 000003cc 0181EC2A'            MVKL    .S2     $C$RL0,B3         ; |9| 
    1255 000003d0 0180006A'            MVKH    .S2     $C$RL0,B3         ; |9| 
    1256 000003d4 00004000             NOP             3
    1257 000003d8           $C$RL0:    ; CALL OCCURS {_DSK6713_init} {0}  ; |9| 
    1258                    ;** --------------------------------------------------------------------------*
    1259                            .dwpsn  file "../c6713dskinit.c",line 11,column 1,is_stmt
    1260                    $C$DW$68        .dwtag  DW_TAG_TI_branch
    1261                            .dwattr $C$DW$68, DW_AT_low_pc(0x00)
    1262                            .dwattr $C$DW$68, DW_AT_name("_DSK6713_AIC23_openCodec")
    1263                            .dwattr $C$DW$68, DW_AT_TI_call
    1264 000003d8 0FFF8810!            CALL    .S1     _DSK6713_AIC23_openCodec ; |11| 
    1265 000003dc 0181F82A'            MVKL    .S2     $C$RL1,B3         ; |11| 
TMS320C6x Assembler PC v7.4.18 Tue Jan 02 08:53:48 2018

Tools Copyright (c) 1996-2015 Texas Instruments Incorporated
C:\Users\Pc\AppData\Local\Temp\0378410                               PAGE   24

    1266 000003e0 0200162A-            MVKL    .S2     _config,B4
    1267 000003e4 0180006A'            MVKH    .S2     $C$RL1,B3         ; |11| 
    1268 000003e8 0200006A-            MVKH    .S2     _config,B4
    1269 000003ec 020000F8             ZERO    .L1     A4                ; |11| 
    1270 000003f0           $C$RL1:    ; CALL OCCURS {_DSK6713_AIC23_openCodec} {0}  ; |11| 
    1271 000003f0 02002A2A-            MVKL    .S2     _hAIC23_handle,B4
    1272 000003f4 0200006A-            MVKH    .S2     _hAIC23_handle,B4
    1273 000003f8 021002F4             STW     .D2T1   A4,*B4            ; |11| 
    1274                            .dwpsn  file "../c6713dskinit.c",line 12,column 1,is_stmt
    1275 000003fc 01800028!            MVKL    .S1     _fs,A3
    1276                    $C$DW$69        .dwtag  DW_TAG_TI_branch
    1277                            .dwattr $C$DW$69, DW_AT_low_pc(0x04)
    1278                            .dwattr $C$DW$69, DW_AT_name("_DSK6713_AIC23_setFreq")
    1279                            .dwattr $C$DW$69, DW_AT_TI_call
    1280                    
    1281 00000400 01800069!            MVKH    .S1     _fs,A3
    1282 00000404 0FFF8012! ||         CALL    .S2     _DSK6713_AIC23_setFreq ; |12| 
    1283                    
    1284 00000408 020C0266             LDW     .D1T2   *A3,B4            ; |12| 
    1285 0000040c 01820C2A'            MVKL    .S2     $C$RL2,B3         ; |12| 
    1286 00000410 0180006A'            MVKH    .S2     $C$RL2,B3         ; |12| 
    1287 00000414 00002000             NOP             2
    1288 00000418           $C$RL2:    ; CALL OCCURS {_DSK6713_AIC23_setFreq} {0}  ; |12| 
    1289                            .dwpsn  file "../c6713dskinit.c",line 13,column 1,is_stmt
    1290 00000418 01800028!            MVKL    .S1     _DSK6713_AIC23_codecdatahandle,A3
    1291 0000041c 01800068!            MVKH    .S1     _DSK6713_AIC23_codecdatahandle,A3
    1292 00000420 020C0264             LDW     .D1T1   *A3,A4            ; |13| 
    1293 00000424 00006000             NOP             4
    1294                            .dwpsn  file "C:/ti/CCCStudio_v3.1/C6000/csl/include/csl_mcbsp.h",line 272,column 20,is_stmt
    1295 00000428 02906264             LDW     .D1T1   *+A4(12),A5       ; |272| 
    1296                            .dwpsn  file "C:/ti/CCCStudio_v3.1/C6000/csl/include/csl_irq.h",line 354,column 10,is_stmt
    1297 0000042c 020403E2             MVC     .S2     CSR,B4            ; |354| 
    1298 00000430 02902F5A             AND     .L2     1,B4,B5           ; |354| 
    1299                            .dwpsn  file "C:/ti/CCCStudio_v3.1/C6000/csl/include/csl_irq.h",line 355,column 3,is_stmt
    1300 00000434 020403E2             MVC     .S2     CSR,B4            ; |355| 
    1301 00000438 0213CF5A             AND     .L2     -2,B4,B4          ; |355| 
    1302 0000043c 009003A2             MVC     .S2     B4,CSR            ; |355| 
    1303 00000440 00000000             NOP             1
    1304                            .dwpsn  file "C:/ti/CCCStudio_v3.1/C6000/csl/include/csl_mcbsp.h",line 279,column 3,is_stmt
    1305 00000444 0200062A-            MVKL    .S2     _AIC23CfgData,B4
    1306 00000448 0200006A-            MVKH    .S2     _AIC23CfgData,B4
    1307 0000044c 039002E6             LDW     .D2T2   *B4,B7            ; |279| 
    1308                            .dwpsn  file "C:/ti/CCCStudio_v3.1/C6000/csl/include/csl_mcbsp.h",line 280,column 3,is_stmt
    1309 00000450 0210805A             ADD     .L2     4,B4,B4
    1310 00000454 041002E6             LDW     .D2T2   *B4,B8            ; |280| 
    1311                            .dwpsn  file "C:/ti/CCCStudio_v3.1/C6000/csl/include/csl_mcbsp.h",line 281,column 3,is_stmt
    1312 00000458 01909058             ADD     .L1X    4,B4,A3
    1313 0000045c 030C0264             LDW     .D1T1   *A3,A6            ; |281| 
    1314                            .dwpsn  file "C:/ti/CCCStudio_v3.1/C6000/csl/include/csl_mcbsp.h",line 282,column 3,is_stmt
    1315 00000460 0211005A             ADD     .L2     8,B4,B4
    1316 00000464 049002E6             LDW     .D2T2   *B4,B9            ; |282| 
    1317                            .dwpsn  file "C:/ti/CCCStudio_v3.1/C6000/csl/include/csl_mcbsp.h",line 283,column 3,is_stmt
    1318 00000468 018D0058             ADD     .L1     8,A3,A3
    1319 0000046c 038C0264             LDW     .D1T1   *A3,A7            ; |283| 
    1320                            .dwpsn  file "C:/ti/CCCStudio_v3.1/C6000/csl/include/csl_mcbsp.h",line 284,column 3,is_stmt
TMS320C6x Assembler PC v7.4.18 Tue Jan 02 08:53:48 2018

Tools Copyright (c) 1996-2015 Texas Instruments Incorporated
C:\Users\Pc\AppData\Local\Temp\0378410                               PAGE   25

    1321 00000470 0211005A             ADD     .L2     8,B4,B4
    1322 00000474 021002E6             LDW     .D2T2   *B4,B4            ; |284| 
    1323                            .dwpsn  file "C:/ti/CCCStudio_v3.1/C6000/csl/include/csl_mcbsp.h",line 285,column 3,is_stmt
    1324 00000478 018D0058             ADD     .L1     8,A3,A3
    1325 0000047c 040C0264             LDW     .D1T1   *A3,A8            ; |285| 
    1326                            .dwpsn  file "C:/ti/CCCStudio_v3.1/C6000/csl/include/csl_mcbsp.h",line 286,column 3,is_stmt
    1327 00000480 030C905A             ADD     .L2X    4,A3,B6
    1328 00000484 031802E6             LDW     .D2T2   *B6,B6            ; |286| 
    1329                            .dwpsn  file "C:/ti/CCCStudio_v3.1/C6000/csl/include/csl_mcbsp.h",line 288,column 3,is_stmt
    1330 00000488 018000F8             ZERO    .L1     A3                ; |288| 
    1331 0000048c 01944274             STW     .D1T1   A3,*+A5(8)        ; |288| 
    1332                            .dwpsn  file "C:/ti/CCCStudio_v3.1/C6000/csl/include/csl_mcbsp.h",line 289,column 3,is_stmt
    1333 00000490 04146276             STW     .D1T2   B8,*+A5(12)       ; |289| 
    1334                            .dwpsn  file "C:/ti/CCCStudio_v3.1/C6000/csl/include/csl_mcbsp.h",line 290,column 3,is_stmt
    1335 00000494 03148274             STW     .D1T1   A6,*+A5(16)       ; |290| 
    1336                            .dwpsn  file "C:/ti/CCCStudio_v3.1/C6000/csl/include/csl_mcbsp.h",line 291,column 3,is_stmt
    1337 00000498 0494A276             STW     .D1T2   B9,*+A5(20)       ; |291| 
    1338                            .dwpsn  file "C:/ti/CCCStudio_v3.1/C6000/csl/include/csl_mcbsp.h",line 292,column 3,is_stmt
    1339 0000049c 0394C274             STW     .D1T1   A7,*+A5(24)       ; |292| 
    1340                            .dwpsn  file "C:/ti/CCCStudio_v3.1/C6000/csl/include/csl_mcbsp.h",line 293,column 3,is_stmt
    1341 000004a0 0214E276             STW     .D1T2   B4,*+A5(28)       ; |293| 
    1342                            .dwpsn  file "C:/ti/CCCStudio_v3.1/C6000/csl/include/csl_mcbsp.h",line 294,column 3,is_stmt
    1343 000004a4 04150274             STW     .D1T1   A8,*+A5(32)       ; |294| 
    1344                            .dwpsn  file "C:/ti/CCCStudio_v3.1/C6000/csl/include/csl_mcbsp.h",line 295,column 3,is_stmt
    1345 000004a8 03152276             STW     .D1T2   B6,*+A5(36)       ; |295| 
    1346                            .dwpsn  file "C:/ti/CCCStudio_v3.1/C6000/csl/include/csl_mcbsp.h",line 296,column 3,is_stmt
    1347 000004ac 03944276             STW     .D1T2   B7,*+A5(8)        ; |296| 
    1348                            .dwpsn  file "C:/ti/CCCStudio_v3.1/C6000/csl/include/csl_irq.h",line 360,column 3,is_stmt
    1349 000004b0 020403E2             MVC     .S2     CSR,B4            ; |360| 
    1350                    
    1351 000004b4 02142F5B             AND     .L2     1,B5,B4           ; |360| 
    1352 000004b8 0293C7A2  ||         AND     .S2     -2,B4,B5          ; |360| 
    1353                    
    1354 000004bc 02148FFA             OR      .L2     B4,B5,B4          ; |360| 
    1355 000004c0 009003A2             MVC     .S2     B4,CSR            ; |360| 
    1356 000004c4 00000000             NOP             1
    1357                            .dwpsn  file "../c6713dskinit.c",line 15,column 1,is_stmt
    1358 000004c8 01800028!            MVKL    .S1     _MCBSP_start,A3
    1359 000004cc 01800068!            MVKH    .S1     _MCBSP_start,A3
    1360                    $C$DW$70        .dwtag  DW_TAG_TI_branch
    1361                            .dwattr $C$DW$70, DW_AT_low_pc(0x00)
    1362                            .dwattr $C$DW$70, DW_AT_name("_MCBSP_start")
    1363                            .dwattr $C$DW$70, DW_AT_TI_call
    1364 000004d0 000C1362             CALL    .S2X    A3                ; |15| 
    1365 000004d4 0182742A'            MVKL    .S2     $C$RL3,B3         ; |15| 
    1366 000004d8 020007AA             MVK     .S2     0xf,B4            ; |15| 
    1367 000004dc 0180006A'            MVKH    .S2     $C$RL3,B3         ; |15| 
    1368 000004e0 03006E28             MVK     .S1     0xdc,A6           ; |15| 
    1369 000004e4 00000000             NOP             1
    1370 000004e8           $C$RL3:    ; CALL OCCURS {_MCBSP_start} {0}  ; |15| 
    1371                    ;** --------------------------------------------------------------------------*
    1372                            .dwpsn  file "../c6713dskinit.c",line 17,column 1,is_stmt
    1373 000004e8 01BC52E6             LDW     .D2T2   *++SP(8),B3       ; |17| 
    1374 000004ec 00006000             NOP             4
    1375                            .dwcfi  cfa_offset, 0
TMS320C6x Assembler PC v7.4.18 Tue Jan 02 08:53:48 2018

Tools Copyright (c) 1996-2015 Texas Instruments Incorporated
C:\Users\Pc\AppData\Local\Temp\0378410                               PAGE   26

    1376                            .dwcfi  restore_reg, 19
    1377                            .dwcfi  cfa_offset, 0
    1378                    $C$DW$71        .dwtag  DW_TAG_TI_branch
    1379                            .dwattr $C$DW$71, DW_AT_low_pc(0x00)
    1380                            .dwattr $C$DW$71, DW_AT_TI_return
    1381 000004f0 000C0362             RET     .S2     B3                ; |17| 
    1382 000004f4 00008000             NOP             5
    1383                               ; BRANCH OCCURS {B3}              ; |17| 
    1384                            .dwattr $C$DW$56, DW_AT_TI_end_file("../c6713dskinit.c")
    1385                            .dwattr $C$DW$56, DW_AT_TI_end_line(0x11)
    1386                            .dwattr $C$DW$56, DW_AT_TI_end_column(0x01)
    1387                            .dwendentry
    1388                            .dwendtag $C$DW$56
    1389                    
    1390 000004f8                   .sect   ".text"
    1391                            .clink
    1392                            .global _comm_poll
    1393                    
    1394                    $C$DW$72        .dwtag  DW_TAG_subprogram, DW_AT_name("comm_poll")
    1395                            .dwattr $C$DW$72, DW_AT_low_pc(_comm_poll)
    1396                            .dwattr $C$DW$72, DW_AT_high_pc(0x00)
    1397                            .dwattr $C$DW$72, DW_AT_TI_symbol_name("_comm_poll")
    1398                            .dwattr $C$DW$72, DW_AT_external
    1399                            .dwattr $C$DW$72, DW_AT_TI_begin_file("../c6713dskinit.c")
    1400                            .dwattr $C$DW$72, DW_AT_TI_begin_line(0x13)
    1401                            .dwattr $C$DW$72, DW_AT_TI_begin_column(0x06)
    1402                            .dwattr $C$DW$72, DW_AT_TI_max_frame_size(0x08)
    1403                            .dwpsn  file "../c6713dskinit.c",line 20,column 1,is_stmt,address _comm_poll
    1404                    
    1405                            .dwfde $C$DW$CIE, _comm_poll
    1406                    
    1407                    ;******************************************************************************
    1408                    ;* FUNCTION NAME: comm_poll                                                   *
    1409                    ;*                                                                            *
    1410                    ;*   Regs Modified     : A0,A1,A2,A3,A4,A5,A6,A7,A8,A9,B0,B1,B2,B3,B4,B5,B6,  *
    1411                    ;*                           B7,B8,B9,SP                                      *
    1412                    ;*   Regs Used         : A0,A1,A2,A3,A4,A5,A6,A7,A8,A9,B0,B1,B2,B3,B4,B5,B6,  *
    1413                    ;*                           B7,B8,B9,DP,SP                                   *
    1414                    ;*   Local Frame Size  : 0 Args + 0 Auto + 4 Save = 4 byte                    *
    1415                    ;******************************************************************************
    1416                    
    1417                    ;******************************************************************************
    1418                    ;*                                                                            *
    1419                    ;* Using -g (debug) with optimization (-o2) may disable key optimizations!    *
    1420                    ;*                                                                            *
    1421                    ;******************************************************************************
    1422 000004f8           _comm_poll:
    1423                    ;** --------------------------------------------------------------------------*
    1424                            .dwcfi  cfa_offset, 0
    1425                            .dwcfi  save_reg_to_reg, 228, 19
    1426 000004f8 01BC54F6             STW     .D2T2   B3,*SP--(8)       ; |20| 
    1427                            .dwcfi  cfa_offset, 8
    1428                            .dwcfi  save_reg_to_mem, 19, 0
    1429                            .dwpsn  file "../c6713dskinit.c",line 21,column 2,is_stmt
    1430 000004fc 01800428-            MVKL    .S1     _poll,A3
TMS320C6x Assembler PC v7.4.18 Tue Jan 02 08:53:48 2018

Tools Copyright (c) 1996-2015 Texas Instruments Incorporated
C:\Users\Pc\AppData\Local\Temp\0378410                               PAGE   27

    1431                    
    1432 00000500 01800069-            MVKH    .S1     _poll,A3
    1433 00000504 020000AA  ||         MVK     .S2     1,B4              ; |21| 
    1434                    
    1435 00000508 020C0276             STW     .D1T2   B4,*A3            ; |21| 
    1436                            .dwpsn  file "../c6713dskinit.c",line 22,column 4,is_stmt
    1437                    $C$DW$73        .dwtag  DW_TAG_TI_branch
    1438                            .dwattr $C$DW$73, DW_AT_low_pc(0x00)
    1439                            .dwattr $C$DW$73, DW_AT_name("_c6713_dsk_init")
    1440                            .dwattr $C$DW$73, DW_AT_TI_call
    1441 0000050c 0FFFD890             CALL    .S1     _c6713_dsk_init   ; |22| 
    1442 00000510 01828E2A'            MVKL    .S2     $C$RL4,B3         ; |22| 
    1443 00000514 0180006A'            MVKH    .S2     $C$RL4,B3         ; |22| 
    1444 00000518 00004000             NOP             3
    1445 0000051c           $C$RL4:    ; CALL OCCURS {_c6713_dsk_init} {0}  ; |22| 
    1446                    ;** --------------------------------------------------------------------------*
    1447                            .dwpsn  file "../c6713dskinit.c",line 23,column 1,is_stmt
    1448 0000051c 01BC52E6             LDW     .D2T2   *++SP(8),B3       ; |23| 
    1449 00000520 00006000             NOP             4
    1450                            .dwcfi  cfa_offset, 0
    1451                            .dwcfi  restore_reg, 19
    1452                            .dwcfi  cfa_offset, 0
    1453                    $C$DW$74        .dwtag  DW_TAG_TI_branch
    1454                            .dwattr $C$DW$74, DW_AT_low_pc(0x00)
    1455                            .dwattr $C$DW$74, DW_AT_TI_return
    1456 00000524 000C0362             RET     .S2     B3                ; |23| 
    1457 00000528 00008000             NOP             5
    1458                               ; BRANCH OCCURS {B3}              ; |23| 
    1459                            .dwattr $C$DW$72, DW_AT_TI_end_file("../c6713dskinit.c")
    1460                            .dwattr $C$DW$72, DW_AT_TI_end_line(0x17)
    1461                            .dwattr $C$DW$72, DW_AT_TI_end_column(0x01)
    1462                            .dwendentry
    1463                            .dwendtag $C$DW$72
    1464                    
    1465 0000052c                   .sect   ".text"
    1466                            .clink
    1467                            .global _comm_intr
    1468                    
    1469                    $C$DW$75        .dwtag  DW_TAG_subprogram, DW_AT_name("comm_intr")
    1470                            .dwattr $C$DW$75, DW_AT_low_pc(_comm_intr)
    1471                            .dwattr $C$DW$75, DW_AT_high_pc(0x00)
    1472                            .dwattr $C$DW$75, DW_AT_TI_symbol_name("_comm_intr")
    1473                            .dwattr $C$DW$75, DW_AT_external
    1474                            .dwattr $C$DW$75, DW_AT_TI_begin_file("../c6713dskinit.c")
    1475                            .dwattr $C$DW$75, DW_AT_TI_begin_line(0x19)
    1476                            .dwattr $C$DW$75, DW_AT_TI_begin_column(0x06)
    1477                            .dwattr $C$DW$75, DW_AT_TI_max_frame_size(0x08)
    1478                            .dwpsn  file "../c6713dskinit.c",line 26,column 1,is_stmt,address _comm_intr
    1479                    
    1480                            .dwfde $C$DW$CIE, _comm_intr
    1481                    
    1482                    ;******************************************************************************
    1483                    ;* FUNCTION NAME: comm_intr                                                   *
    1484                    ;*                                                                            *
    1485                    ;*   Regs Modified     : A0,A1,A2,A3,A4,A5,A6,A7,A8,A9,A10,B0,B1,B2,B3,B4,B5, *
TMS320C6x Assembler PC v7.4.18 Tue Jan 02 08:53:48 2018

Tools Copyright (c) 1996-2015 Texas Instruments Incorporated
C:\Users\Pc\AppData\Local\Temp\0378410                               PAGE   28

    1486                    ;*                           B6,B7,B8,B9,SP                                   *
    1487                    ;*   Regs Used         : A0,A1,A2,A3,A4,A5,A6,A7,A8,A9,A10,B0,B1,B2,B3,B4,B5, *
    1488                    ;*                           B6,B7,B8,B9,DP,SP                                *
    1489                    ;*   Local Frame Size  : 0 Args + 0 Auto + 8 Save = 8 byte                    *
    1490                    ;******************************************************************************
    1491                    
    1492                    ;******************************************************************************
    1493                    ;*                                                                            *
    1494                    ;* Using -g (debug) with optimization (-o2) may disable key optimizations!    *
    1495                    ;*                                                                            *
    1496                    ;******************************************************************************
    1497 0000052c           _comm_intr:
    1498                    ;** --------------------------------------------------------------------------*
    1499                            .dwcfi  cfa_offset, 0
    1500                            .dwcfi  save_reg_to_reg, 228, 19
    1501 0000052c 01BC54F6             STW     .D2T2   B3,*SP--(8)       ; |26| 
    1502                            .dwcfi  cfa_offset, 8
    1503                            .dwcfi  save_reg_to_mem, 19, 0
    1504 00000530 053C22F4             STW     .D2T1   A10,*+SP(4)       ; |26| 
    1505                            .dwcfi  save_reg_to_mem, 10, -4
    1506                            .dwpsn  file "../c6713dskinit.c",line 27,column 2,is_stmt
    1507 00000534 02000428-            MVKL    .S1     _poll,A4
    1508                    
    1509 00000538 02000069-            MVKH    .S1     _poll,A4
    1510 0000053c 018000F8  ||         ZERO    .L1     A3                ; |27| 
    1511                    
    1512 00000540 01900274             STW     .D1T1   A3,*A4            ; |27| 
    1513                            .dwpsn  file "C:/ti/CCCStudio_v3.1/C6000/csl/include/csl_irq.h",line 354,column 10,is_stmt
    1514 00000544 020403E2             MVC     .S2     CSR,B4            ; |354| 
    1515 00000548 00000000             NOP             1
    1516                            .dwpsn  file "C:/ti/CCCStudio_v3.1/C6000/csl/include/csl_irq.h",line 355,column 3,is_stmt
    1517 0000054c 020403E2             MVC     .S2     CSR,B4            ; |355| 
    1518 00000550 0213CF5A             AND     .L2     -2,B4,B4          ; |355| 
    1519 00000554 009003A2             MVC     .S2     B4,CSR            ; |355| 
    1520 00000558 00000000             NOP             1
    1521                            .dwpsn  file "../c6713dskinit.c",line 29,column 2,is_stmt
    1522                    $C$DW$76        .dwtag  DW_TAG_TI_branch
    1523                            .dwattr $C$DW$76, DW_AT_low_pc(0x00)
    1524                            .dwattr $C$DW$76, DW_AT_name("_c6713_dsk_init")
    1525                            .dwattr $C$DW$76, DW_AT_TI_call
    1526 0000055c 0FFFD090             CALL    .S1     _c6713_dsk_init   ; |29| 
    1527 00000560 0182B62A'            MVKL    .S2     $C$RL5,B3         ; |29| 
    1528 00000564 0180006A'            MVKH    .S2     $C$RL5,B3         ; |29| 
    1529 00000568 00004000             NOP             3
    1530 0000056c           $C$RL5:    ; CALL OCCURS {_c6713_dsk_init} {0}  ; |29| 
    1531                    ;** --------------------------------------------------------------------------*
    1532                            .dwpsn  file "C:/ti/CCCStudio_v3.1/C6000/csl/include/csl_mcbsp.h",line 213,column 3,is_stmt
    1533 0000056c 0200002A!            MVKL    .S2     _DSK6713_AIC23_codecdatahandle,B4
    1534 00000570 0200006A!            MVKH    .S2     _DSK6713_AIC23_codecdatahandle,B4
    1535 00000574 021002E6             LDW     .D2T2   *B4,B4            ; |213| 
    1536 00000578 05000228-            MVKL    .S1     _CODECEventId,A10
    1537 0000057c 05000068-            MVKH    .S1     _CODECEventId,A10
    1538 00000580 00002000             NOP             2
    1539 00000584 029022E6             LDW     .D2T2   *+B4(4),B5        ; |213| 
    1540 00000588 00006000             NOP             4
TMS320C6x Assembler PC v7.4.18 Tue Jan 02 08:53:48 2018

Tools Copyright (c) 1996-2015 Texas Instruments Incorporated
C:\Users\Pc\AppData\Local\Temp\0378410                               PAGE   29

    1541 0000058c 02A80276             STW     .D1T2   B5,*A10           ; |213| 
    1542                            .dwpsn  file "../c6713dskinit.c",line 36,column 4,is_stmt
    1543 00000590 01800028!            MVKL    .S1     _IRQ_map,A3
    1544 00000594 01800068!            MVKH    .S1     _IRQ_map,A3
    1545                    $C$DW$77        .dwtag  DW_TAG_TI_branch
    1546                            .dwattr $C$DW$77, DW_AT_low_pc(0x00)
    1547                            .dwattr $C$DW$77, DW_AT_name("_IRQ_map")
    1548                            .dwattr $C$DW$77, DW_AT_TI_call
    1549 00000598 000C1362             CALL    .S2X    A3                ; |36| 
    1550 0000059c 0182D82A'            MVKL    .S2     $C$RL6,B3         ; |36| 
    1551 000005a0 0180006A'            MVKH    .S2     $C$RL6,B3         ; |36| 
    1552 000005a4 02141058             MV      .L1X    B5,A4             ; |36| 
    1553 000005a8 020005AA             MVK     .S2     0xb,B4            ; |36| 
    1554 000005ac 00000000             NOP             1
    1555 000005b0           $C$RL6:    ; CALL OCCURS {_IRQ_map} {0}      ; |36| 
    1556                            .dwpsn  file "C:/ti/CCCStudio_v3.1/C6000/csl/include/csl_irq.h",line 364,column 3,is_stmt
    1557 000005b0 02280264             LDW     .D1T1   *A10,A4           ; |364| 
    1558 000005b4 01800028!            MVKL    .S1     __IRQ_eventTable,A3
    1559 000005b8 01800068!            MVKH    .S1     __IRQ_eventTable,A3
    1560 000005bc 00002000             NOP             2
    1561 000005c0 018C8A64             LDW     .D1T1   *+A3[A4],A3       ; |364| 
    1562 000005c4 00004000             NOP             3
    1563 000005c8 021003E2             MVC     .S2     IER,B4            ; |364| 
    1564 000005cc 020FEDD8             NOT     .L1     A3,A4             ; |364| 
    1565 000005d0 02109F7A             AND     .L2X    A4,B4,B4          ; |364| 
    1566 000005d4 021003A2             MVC     .S2     B4,IER            ; |364| 
    1567 000005d8 00000000             NOP             1
    1568                            .dwpsn  file "C:/ti/CCCStudio_v3.1/C6000/csl/include/csl_irq.h",line 365,column 3,is_stmt
    1569 000005dc 018C13A2             MVC     .S2X    A3,ICR            ; |365| 
    1570 000005e0 00000000             NOP             1
    1571                            .dwpsn  file "C:/ti/CCCStudio_v3.1/C6000/csl/include/csl_irq.h",line 350,column 3,is_stmt
    1572 000005e4 020403E2             MVC     .S2     CSR,B4            ; |350| 
    1573 000005e8 02102FDA             OR      .L2     1,B4,B4           ; |350| 
    1574 000005ec 009003A2             MVC     .S2     B4,CSR            ; |350| 
    1575 000005f0 00000000             NOP             1
    1576                            .dwpsn  file "C:/ti/CCCStudio_v3.1/C6000/csl/include/csl_irq.h",line 375,column 3,is_stmt
    1577 000005f4 021003E2             MVC     .S2     IER,B4            ; |375| 
    1578 000005f8 02104FDA             OR      .L2     2,B4,B4           ; |375| 
    1579 000005fc 021003A2             MVC     .S2     B4,IER            ; |375| 
    1580 00000600 00000000             NOP             1
    1581                            .dwpsn  file "C:/ti/CCCStudio_v3.1/C6000/csl/include/csl_irq.h",line 320,column 3,is_stmt
    1582 00000604 021003E2             MVC     .S2     IER,B4            ; |320| 
    1583 00000608 020C9FFA             OR      .L2X    A3,B4,B4          ; |320| 
    1584 0000060c 021003A2             MVC     .S2     B4,IER            ; |320| 
    1585 00000610 00000000             NOP             1
    1586                            .dwpsn  file "../c6713dskinit.c",line 42,column 2,is_stmt
    1587                    $C$DW$78        .dwtag  DW_TAG_TI_branch
    1588                            .dwattr $C$DW$78, DW_AT_low_pc(0x00)
    1589                            .dwattr $C$DW$78, DW_AT_name("_output_sample")
    1590                            .dwattr $C$DW$78, DW_AT_TI_call
    1591 00000614 0FFF4010             CALL    .S1     _output_sample    ; |42| 
    1592 00000618 0183142A'            MVKL    .S2     $C$RL7,B3         ; |42| 
    1593 0000061c 0180006A'            MVKH    .S2     $C$RL7,B3         ; |42| 
    1594 00000620 020000F8             ZERO    .L1     A4                ; |42| 
    1595 00000624 00002000             NOP             2
TMS320C6x Assembler PC v7.4.18 Tue Jan 02 08:53:48 2018

Tools Copyright (c) 1996-2015 Texas Instruments Incorporated
C:\Users\Pc\AppData\Local\Temp\0378410                               PAGE   30

    1596 00000628           $C$RL7:    ; CALL OCCURS {_output_sample} {0}  ; |42| 
    1597                    ;** --------------------------------------------------------------------------*
    1598                            .dwpsn  file "../c6713dskinit.c",line 43,column 1,is_stmt
    1599 00000628 053C22E4             LDW     .D2T1   *+SP(4),A10       ; |43| 
    1600                            .dwcfi  restore_reg, 10
    1601 0000062c 01BC52E6             LDW     .D2T2   *++SP(8),B3       ; |43| 
    1602 00000630 00006000             NOP             4
    1603                            .dwcfi  cfa_offset, 0
    1604                            .dwcfi  restore_reg, 19
    1605                            .dwcfi  cfa_offset, 0
    1606                    $C$DW$79        .dwtag  DW_TAG_TI_branch
    1607                            .dwattr $C$DW$79, DW_AT_low_pc(0x00)
    1608                            .dwattr $C$DW$79, DW_AT_TI_return
    1609 00000634 000C0362             RET     .S2     B3                ; |43| 
    1610 00000638 00008000             NOP             5
    1611                               ; BRANCH OCCURS {B3}              ; |43| 
    1612                            .dwattr $C$DW$75, DW_AT_TI_end_file("../c6713dskinit.c")
    1613                            .dwattr $C$DW$75, DW_AT_TI_end_line(0x2b)
    1614                            .dwattr $C$DW$75, DW_AT_TI_end_column(0x01)
    1615                            .dwendentry
    1616                            .dwendtag $C$DW$75
    1617                    
    1618                    ;*****************************************************************************
    1619                    ;* UNDEFINED EXTERNAL REFERENCES                                             *
    1620                    ;*****************************************************************************
    1621                            .global _IRQ_map
    1622                            .global _DSK6713_init
    1623                            .global _MCBSP_start
    1624                            .global _DSK6713_AIC23_openCodec
    1625                            .global _DSK6713_AIC23_setFreq
    1626                            .global __IRQ_eventTable
    1627                            .global _DSK6713_AIC23_codecdatahandle
    1628                            .global _fs
    1629                    
    1630                    ;******************************************************************************
    1631                    ;* BUILD ATTRIBUTES                                                           *
    1632                    ;******************************************************************************
    1633                            .battr "TI", Tag_File, 1, Tag_ABI_stack_align_needed(0)
    1634                            .battr "TI", Tag_File, 1, Tag_ABI_stack_align_preserved(0)
    1635                            .battr "TI", Tag_File, 1, Tag_Tramps_Use_SOC(0)
    1636                    
    1637                    ;******************************************************************************
    1638                    ;* TYPE INFORMATION                                                           *
    1639                    ;******************************************************************************
    1640                    
    1641                    $C$DW$T$22      .dwtag  DW_TAG_structure_type
    1642                            .dwattr $C$DW$T$22, DW_AT_byte_size(0x18)
    1643                    $C$DW$80        .dwtag  DW_TAG_member
    1644                            .dwattr $C$DW$80, DW_AT_type(*$C$DW$T$19)
    1645                            .dwattr $C$DW$80, DW_AT_name("allocated")
    1646                            .dwattr $C$DW$80, DW_AT_TI_symbol_name("_allocated")
    1647                            .dwattr $C$DW$80, DW_AT_data_member_location[DW_OP_plus_uconst 0x0]
    1648                            .dwattr $C$DW$80, DW_AT_accessibility(DW_ACCESS_public)
    1649                    $C$DW$81        .dwtag  DW_TAG_member
    1650                            .dwattr $C$DW$81, DW_AT_type(*$C$DW$T$19)
TMS320C6x Assembler PC v7.4.18 Tue Jan 02 08:53:48 2018

Tools Copyright (c) 1996-2015 Texas Instruments Incorporated
C:\Users\Pc\AppData\Local\Temp\0378410                               PAGE   31

    1651                            .dwattr $C$DW$81, DW_AT_name("xmtEventId")
    1652                            .dwattr $C$DW$81, DW_AT_TI_symbol_name("_xmtEventId")
    1653                            .dwattr $C$DW$81, DW_AT_data_member_location[DW_OP_plus_uconst 0x4]
    1654                            .dwattr $C$DW$81, DW_AT_accessibility(DW_ACCESS_public)
    1655                    $C$DW$82        .dwtag  DW_TAG_member
    1656                            .dwattr $C$DW$82, DW_AT_type(*$C$DW$T$19)
    1657                            .dwattr $C$DW$82, DW_AT_name("rcvEventId")
    1658                            .dwattr $C$DW$82, DW_AT_TI_symbol_name("_rcvEventId")
    1659                            .dwattr $C$DW$82, DW_AT_data_member_location[DW_OP_plus_uconst 0x8]
    1660                            .dwattr $C$DW$82, DW_AT_accessibility(DW_ACCESS_public)
    1661                    $C$DW$83        .dwtag  DW_TAG_member
    1662                            .dwattr $C$DW$83, DW_AT_type(*$C$DW$T$21)
    1663                            .dwattr $C$DW$83, DW_AT_name("baseAddr")
    1664                            .dwattr $C$DW$83, DW_AT_TI_symbol_name("_baseAddr")
    1665                            .dwattr $C$DW$83, DW_AT_data_member_location[DW_OP_plus_uconst 0xc]
    1666                            .dwattr $C$DW$83, DW_AT_accessibility(DW_ACCESS_public)
    1667                    $C$DW$84        .dwtag  DW_TAG_member
    1668                            .dwattr $C$DW$84, DW_AT_type(*$C$DW$T$19)
    1669                            .dwattr $C$DW$84, DW_AT_name("drrAddr")
    1670                            .dwattr $C$DW$84, DW_AT_TI_symbol_name("_drrAddr")
    1671                            .dwattr $C$DW$84, DW_AT_data_member_location[DW_OP_plus_uconst 0x10]
    1672                            .dwattr $C$DW$84, DW_AT_accessibility(DW_ACCESS_public)
    1673                    $C$DW$85        .dwtag  DW_TAG_member
    1674                            .dwattr $C$DW$85, DW_AT_type(*$C$DW$T$19)
    1675                            .dwattr $C$DW$85, DW_AT_name("dxrAddr")
    1676                            .dwattr $C$DW$85, DW_AT_TI_symbol_name("_dxrAddr")
    1677                            .dwattr $C$DW$85, DW_AT_data_member_location[DW_OP_plus_uconst 0x14]
    1678                            .dwattr $C$DW$85, DW_AT_accessibility(DW_ACCESS_public)
    1679                            .dwendtag $C$DW$T$22
    1680                    
    1681                    $C$DW$T$28      .dwtag  DW_TAG_pointer_type
    1682                            .dwattr $C$DW$T$28, DW_AT_type(*$C$DW$T$22)
    1683                            .dwattr $C$DW$T$28, DW_AT_address_class(0x20)
    1684                    $C$DW$T$29      .dwtag  DW_TAG_typedef, DW_AT_name("MCBSP_Handle")
    1685                            .dwattr $C$DW$T$29, DW_AT_type(*$C$DW$T$28)
    1686                            .dwattr $C$DW$T$29, DW_AT_language(DW_LANG_C)
    1687                    
    1688                    $C$DW$T$23      .dwtag  DW_TAG_structure_type
    1689                            .dwattr $C$DW$T$23, DW_AT_byte_size(0x20)
    1690                    $C$DW$86        .dwtag  DW_TAG_member
    1691                            .dwattr $C$DW$86, DW_AT_type(*$C$DW$T$19)
    1692                            .dwattr $C$DW$86, DW_AT_name("spcr")
    1693                            .dwattr $C$DW$86, DW_AT_TI_symbol_name("_spcr")
    1694                            .dwattr $C$DW$86, DW_AT_data_member_location[DW_OP_plus_uconst 0x0]
    1695                            .dwattr $C$DW$86, DW_AT_accessibility(DW_ACCESS_public)
    1696                    $C$DW$87        .dwtag  DW_TAG_member
    1697                            .dwattr $C$DW$87, DW_AT_type(*$C$DW$T$19)
    1698                            .dwattr $C$DW$87, DW_AT_name("rcr")
    1699                            .dwattr $C$DW$87, DW_AT_TI_symbol_name("_rcr")
    1700                            .dwattr $C$DW$87, DW_AT_data_member_location[DW_OP_plus_uconst 0x4]
    1701                            .dwattr $C$DW$87, DW_AT_accessibility(DW_ACCESS_public)
    1702                    $C$DW$88        .dwtag  DW_TAG_member
    1703                            .dwattr $C$DW$88, DW_AT_type(*$C$DW$T$19)
    1704                            .dwattr $C$DW$88, DW_AT_name("xcr")
    1705                            .dwattr $C$DW$88, DW_AT_TI_symbol_name("_xcr")
TMS320C6x Assembler PC v7.4.18 Tue Jan 02 08:53:48 2018

Tools Copyright (c) 1996-2015 Texas Instruments Incorporated
C:\Users\Pc\AppData\Local\Temp\0378410                               PAGE   32

    1706                            .dwattr $C$DW$88, DW_AT_data_member_location[DW_OP_plus_uconst 0x8]
    1707                            .dwattr $C$DW$88, DW_AT_accessibility(DW_ACCESS_public)
    1708                    $C$DW$89        .dwtag  DW_TAG_member
    1709                            .dwattr $C$DW$89, DW_AT_type(*$C$DW$T$19)
    1710                            .dwattr $C$DW$89, DW_AT_name("srgr")
    1711                            .dwattr $C$DW$89, DW_AT_TI_symbol_name("_srgr")
    1712                            .dwattr $C$DW$89, DW_AT_data_member_location[DW_OP_plus_uconst 0xc]
    1713                            .dwattr $C$DW$89, DW_AT_accessibility(DW_ACCESS_public)
    1714                    $C$DW$90        .dwtag  DW_TAG_member
    1715                            .dwattr $C$DW$90, DW_AT_type(*$C$DW$T$19)
    1716                            .dwattr $C$DW$90, DW_AT_name("mcr")
    1717                            .dwattr $C$DW$90, DW_AT_TI_symbol_name("_mcr")
    1718                            .dwattr $C$DW$90, DW_AT_data_member_location[DW_OP_plus_uconst 0x10]
    1719                            .dwattr $C$DW$90, DW_AT_accessibility(DW_ACCESS_public)
    1720                    $C$DW$91        .dwtag  DW_TAG_member
    1721                            .dwattr $C$DW$91, DW_AT_type(*$C$DW$T$19)
    1722                            .dwattr $C$DW$91, DW_AT_name("rcer")
    1723                            .dwattr $C$DW$91, DW_AT_TI_symbol_name("_rcer")
    1724                            .dwattr $C$DW$91, DW_AT_data_member_location[DW_OP_plus_uconst 0x14]
    1725                            .dwattr $C$DW$91, DW_AT_accessibility(DW_ACCESS_public)
    1726                    $C$DW$92        .dwtag  DW_TAG_member
    1727                            .dwattr $C$DW$92, DW_AT_type(*$C$DW$T$19)
    1728                            .dwattr $C$DW$92, DW_AT_name("xcer")
    1729                            .dwattr $C$DW$92, DW_AT_TI_symbol_name("_xcer")
    1730                            .dwattr $C$DW$92, DW_AT_data_member_location[DW_OP_plus_uconst 0x18]
    1731                            .dwattr $C$DW$92, DW_AT_accessibility(DW_ACCESS_public)
    1732                    $C$DW$93        .dwtag  DW_TAG_member
    1733                            .dwattr $C$DW$93, DW_AT_type(*$C$DW$T$19)
    1734                            .dwattr $C$DW$93, DW_AT_name("pcr")
    1735                            .dwattr $C$DW$93, DW_AT_TI_symbol_name("_pcr")
    1736                            .dwattr $C$DW$93, DW_AT_data_member_location[DW_OP_plus_uconst 0x1c]
    1737                            .dwattr $C$DW$93, DW_AT_accessibility(DW_ACCESS_public)
    1738                            .dwendtag $C$DW$T$23
    1739                    
    1740                    $C$DW$T$30      .dwtag  DW_TAG_typedef, DW_AT_name("MCBSP_Config")
    1741                            .dwattr $C$DW$T$30, DW_AT_type(*$C$DW$T$23)
    1742                            .dwattr $C$DW$T$30, DW_AT_language(DW_LANG_C)
    1743                    
    1744                    $C$DW$T$25      .dwtag  DW_TAG_union_type
    1745                            .dwattr $C$DW$T$25, DW_AT_byte_size(0x04)
    1746                    $C$DW$94        .dwtag  DW_TAG_member
    1747                            .dwattr $C$DW$94, DW_AT_type(*$C$DW$T$19)
    1748                            .dwattr $C$DW$94, DW_AT_name("uint")
    1749                            .dwattr $C$DW$94, DW_AT_TI_symbol_name("_uint")
    1750                            .dwattr $C$DW$94, DW_AT_data_member_location[DW_OP_plus_uconst 0x0]
    1751                            .dwattr $C$DW$94, DW_AT_accessibility(DW_ACCESS_public)
    1752                    $C$DW$95        .dwtag  DW_TAG_member
    1753                            .dwattr $C$DW$95, DW_AT_type(*$C$DW$T$24)
    1754                            .dwattr $C$DW$95, DW_AT_name("channel")
    1755                            .dwattr $C$DW$95, DW_AT_TI_symbol_name("_channel")
    1756                            .dwattr $C$DW$95, DW_AT_data_member_location[DW_OP_plus_uconst 0x0]
    1757                            .dwattr $C$DW$95, DW_AT_accessibility(DW_ACCESS_public)
    1758                            .dwendtag $C$DW$T$25
    1759                    
    1760                    
TMS320C6x Assembler PC v7.4.18 Tue Jan 02 08:53:48 2018

Tools Copyright (c) 1996-2015 Texas Instruments Incorporated
C:\Users\Pc\AppData\Local\Temp\0378410                               PAGE   33

    1761                    $C$DW$T$27      .dwtag  DW_TAG_structure_type
    1762                            .dwattr $C$DW$T$27, DW_AT_name("DSK6713_AIC23_Config")
    1763                            .dwattr $C$DW$T$27, DW_AT_byte_size(0x28)
    1764                    $C$DW$96        .dwtag  DW_TAG_member
    1765                            .dwattr $C$DW$96, DW_AT_type(*$C$DW$T$26)
    1766                            .dwattr $C$DW$96, DW_AT_name("regs")
    1767                            .dwattr $C$DW$96, DW_AT_TI_symbol_name("_regs")
    1768                            .dwattr $C$DW$96, DW_AT_data_member_location[DW_OP_plus_uconst 0x0]
    1769                            .dwattr $C$DW$96, DW_AT_accessibility(DW_ACCESS_public)
    1770                            .dwendtag $C$DW$T$27
    1771                    
    1772                    $C$DW$T$33      .dwtag  DW_TAG_typedef, DW_AT_name("DSK6713_AIC23_Config")
    1773                            .dwattr $C$DW$T$33, DW_AT_type(*$C$DW$T$27)
    1774                            .dwattr $C$DW$T$33, DW_AT_language(DW_LANG_C)
    1775                    $C$DW$T$34      .dwtag  DW_TAG_pointer_type
    1776                            .dwattr $C$DW$T$34, DW_AT_type(*$C$DW$T$33)
    1777                            .dwattr $C$DW$T$34, DW_AT_address_class(0x20)
    1778                    $C$DW$T$4       .dwtag  DW_TAG_base_type
    1779                            .dwattr $C$DW$T$4, DW_AT_encoding(DW_ATE_boolean)
    1780                            .dwattr $C$DW$T$4, DW_AT_name("bool")
    1781                            .dwattr $C$DW$T$4, DW_AT_byte_size(0x01)
    1782                    $C$DW$T$5       .dwtag  DW_TAG_base_type
    1783                            .dwattr $C$DW$T$5, DW_AT_encoding(DW_ATE_signed_char)
    1784                            .dwattr $C$DW$T$5, DW_AT_name("signed char")
    1785                            .dwattr $C$DW$T$5, DW_AT_byte_size(0x01)
    1786                    $C$DW$T$6       .dwtag  DW_TAG_base_type
    1787                            .dwattr $C$DW$T$6, DW_AT_encoding(DW_ATE_unsigned_char)
    1788                            .dwattr $C$DW$T$6, DW_AT_name("unsigned char")
    1789                            .dwattr $C$DW$T$6, DW_AT_byte_size(0x01)
    1790                    $C$DW$T$7       .dwtag  DW_TAG_base_type
    1791                            .dwattr $C$DW$T$7, DW_AT_encoding(DW_ATE_signed_char)
    1792                            .dwattr $C$DW$T$7, DW_AT_name("wchar_t")
    1793                            .dwattr $C$DW$T$7, DW_AT_byte_size(0x02)
    1794                    $C$DW$T$8       .dwtag  DW_TAG_base_type
    1795                            .dwattr $C$DW$T$8, DW_AT_encoding(DW_ATE_signed)
    1796                            .dwattr $C$DW$T$8, DW_AT_name("short")
    1797                            .dwattr $C$DW$T$8, DW_AT_byte_size(0x02)
    1798                    
    1799                    $C$DW$T$24      .dwtag  DW_TAG_array_type
    1800                            .dwattr $C$DW$T$24, DW_AT_type(*$C$DW$T$8)
    1801                            .dwattr $C$DW$T$24, DW_AT_language(DW_LANG_C)
    1802                            .dwattr $C$DW$T$24, DW_AT_byte_size(0x04)
    1803                    $C$DW$97        .dwtag  DW_TAG_subrange_type
    1804                            .dwattr $C$DW$97, DW_AT_upper_bound(0x01)
    1805                            .dwendtag $C$DW$T$24
    1806                    
    1807                    $C$DW$T$53      .dwtag  DW_TAG_const_type
    1808                            .dwattr $C$DW$T$53, DW_AT_type(*$C$DW$T$8)
    1809                    $C$DW$T$9       .dwtag  DW_TAG_base_type
    1810                            .dwattr $C$DW$T$9, DW_AT_encoding(DW_ATE_unsigned)
    1811                            .dwattr $C$DW$T$9, DW_AT_name("unsigned short")
    1812                            .dwattr $C$DW$T$9, DW_AT_byte_size(0x02)
    1813                    $C$DW$T$10      .dwtag  DW_TAG_base_type
    1814                            .dwattr $C$DW$T$10, DW_AT_encoding(DW_ATE_signed)
    1815                            .dwattr $C$DW$T$10, DW_AT_name("int")
TMS320C6x Assembler PC v7.4.18 Tue Jan 02 08:53:48 2018

Tools Copyright (c) 1996-2015 Texas Instruments Incorporated
C:\Users\Pc\AppData\Local\Temp\0378410                               PAGE   34

    1816                            .dwattr $C$DW$T$10, DW_AT_byte_size(0x04)
    1817                    $C$DW$T$45      .dwtag  DW_TAG_typedef, DW_AT_name("DSK6713_AIC23_CodecHandle")
    1818                            .dwattr $C$DW$T$45, DW_AT_type(*$C$DW$T$10)
    1819                            .dwattr $C$DW$T$45, DW_AT_language(DW_LANG_C)
    1820                    
    1821                    $C$DW$T$26      .dwtag  DW_TAG_array_type
    1822                            .dwattr $C$DW$T$26, DW_AT_type(*$C$DW$T$10)
    1823                            .dwattr $C$DW$T$26, DW_AT_language(DW_LANG_C)
    1824                            .dwattr $C$DW$T$26, DW_AT_byte_size(0x28)
    1825                    $C$DW$98        .dwtag  DW_TAG_subrange_type
    1826                            .dwattr $C$DW$98, DW_AT_upper_bound(0x09)
    1827                            .dwendtag $C$DW$T$26
    1828                    
    1829                    $C$DW$T$57      .dwtag  DW_TAG_const_type
    1830                            .dwattr $C$DW$T$57, DW_AT_type(*$C$DW$T$10)
    1831                    $C$DW$T$11      .dwtag  DW_TAG_base_type
    1832                            .dwattr $C$DW$T$11, DW_AT_encoding(DW_ATE_unsigned)
    1833                            .dwattr $C$DW$T$11, DW_AT_name("unsigned int")
    1834                            .dwattr $C$DW$T$11, DW_AT_byte_size(0x04)
    1835                    $C$DW$T$19      .dwtag  DW_TAG_typedef, DW_AT_name("Uint32")
    1836                            .dwattr $C$DW$T$19, DW_AT_type(*$C$DW$T$11)
    1837                            .dwattr $C$DW$T$19, DW_AT_language(DW_LANG_C)
    1838                    $C$DW$T$20      .dwtag  DW_TAG_volatile_type
    1839                            .dwattr $C$DW$T$20, DW_AT_type(*$C$DW$T$19)
    1840                    $C$DW$T$21      .dwtag  DW_TAG_pointer_type
    1841                            .dwattr $C$DW$T$21, DW_AT_type(*$C$DW$T$20)
    1842                            .dwattr $C$DW$T$21, DW_AT_address_class(0x20)
    1843                    
    1844                    $C$DW$T$60      .dwtag  DW_TAG_array_type
    1845                            .dwattr $C$DW$T$60, DW_AT_type(*$C$DW$T$19)
    1846                            .dwattr $C$DW$T$60, DW_AT_language(DW_LANG_C)
    1847                            .dwattr $C$DW$T$60, DW_AT_byte_size(0x84)
    1848                    $C$DW$99        .dwtag  DW_TAG_subrange_type
    1849                            .dwattr $C$DW$99, DW_AT_upper_bound(0x20)
    1850                            .dwendtag $C$DW$T$60
    1851                    
    1852                    $C$DW$T$12      .dwtag  DW_TAG_base_type
    1853                            .dwattr $C$DW$T$12, DW_AT_encoding(DW_ATE_signed)
    1854                            .dwattr $C$DW$T$12, DW_AT_name("long")
    1855                            .dwattr $C$DW$T$12, DW_AT_byte_size(0x08)
    1856                            .dwattr $C$DW$T$12, DW_AT_bit_size(0x28)
    1857                            .dwattr $C$DW$T$12, DW_AT_bit_offset(0x18)
    1858                    $C$DW$T$13      .dwtag  DW_TAG_base_type
    1859                            .dwattr $C$DW$T$13, DW_AT_encoding(DW_ATE_unsigned)
    1860                            .dwattr $C$DW$T$13, DW_AT_name("unsigned long")
    1861                            .dwattr $C$DW$T$13, DW_AT_byte_size(0x08)
    1862                            .dwattr $C$DW$T$13, DW_AT_bit_size(0x28)
    1863                            .dwattr $C$DW$T$13, DW_AT_bit_offset(0x18)
    1864                    $C$DW$T$14      .dwtag  DW_TAG_base_type
    1865                            .dwattr $C$DW$T$14, DW_AT_encoding(DW_ATE_signed)
    1866                            .dwattr $C$DW$T$14, DW_AT_name("long long")
    1867                            .dwattr $C$DW$T$14, DW_AT_byte_size(0x08)
    1868                    $C$DW$T$15      .dwtag  DW_TAG_base_type
    1869                            .dwattr $C$DW$T$15, DW_AT_encoding(DW_ATE_unsigned)
    1870                            .dwattr $C$DW$T$15, DW_AT_name("unsigned long long")
TMS320C6x Assembler PC v7.4.18 Tue Jan 02 08:53:48 2018

Tools Copyright (c) 1996-2015 Texas Instruments Incorporated
C:\Users\Pc\AppData\Local\Temp\0378410                               PAGE   35

    1871                            .dwattr $C$DW$T$15, DW_AT_byte_size(0x08)
    1872                    $C$DW$T$16      .dwtag  DW_TAG_base_type
    1873                            .dwattr $C$DW$T$16, DW_AT_encoding(DW_ATE_float)
    1874                            .dwattr $C$DW$T$16, DW_AT_name("float")
    1875                            .dwattr $C$DW$T$16, DW_AT_byte_size(0x04)
    1876                    $C$DW$T$17      .dwtag  DW_TAG_base_type
    1877                            .dwattr $C$DW$T$17, DW_AT_encoding(DW_ATE_float)
    1878                            .dwattr $C$DW$T$17, DW_AT_name("double")
    1879                            .dwattr $C$DW$T$17, DW_AT_byte_size(0x08)
    1880                    $C$DW$T$18      .dwtag  DW_TAG_base_type
    1881                            .dwattr $C$DW$T$18, DW_AT_encoding(DW_ATE_float)
    1882                            .dwattr $C$DW$T$18, DW_AT_name("long double")
    1883                            .dwattr $C$DW$T$18, DW_AT_byte_size(0x08)
    1884                            .dwattr $C$DW$CU, DW_AT_language(DW_LANG_C)
    1885                    
    1886                    ;***************************************************************
    1887                    ;* DWARF CIE ENTRIES                                           *
    1888                    ;***************************************************************
    1889                    
    1890                    $C$DW$CIE       .dwcie 228
    1891                            .dwcfi  cfa_register, 31
    1892                            .dwcfi  cfa_offset, 0
    1893                            .dwcfi  undefined, 0
    1894                            .dwcfi  undefined, 1
    1895                            .dwcfi  undefined, 2
    1896                            .dwcfi  undefined, 3
    1897                            .dwcfi  undefined, 4
    1898                            .dwcfi  undefined, 5
    1899                            .dwcfi  undefined, 6
    1900                            .dwcfi  undefined, 7
    1901                            .dwcfi  undefined, 8
    1902                            .dwcfi  undefined, 9
    1903                            .dwcfi  same_value, 10
    1904                            .dwcfi  same_value, 11
    1905                            .dwcfi  same_value, 12
    1906                            .dwcfi  same_value, 13
    1907                            .dwcfi  same_value, 14
    1908                            .dwcfi  same_value, 15
    1909                            .dwcfi  undefined, 16
    1910                            .dwcfi  undefined, 17
    1911                            .dwcfi  undefined, 18
    1912                            .dwcfi  undefined, 19
    1913                            .dwcfi  undefined, 20
    1914                            .dwcfi  undefined, 21
    1915                            .dwcfi  undefined, 22
    1916                            .dwcfi  undefined, 23
    1917                            .dwcfi  undefined, 24
    1918                            .dwcfi  undefined, 25
    1919                            .dwcfi  same_value, 26
    1920                            .dwcfi  same_value, 27
    1921                            .dwcfi  same_value, 28
    1922                            .dwcfi  same_value, 29
    1923                            .dwcfi  same_value, 30
    1924                            .dwcfi  same_value, 31
    1925                            .dwcfi  same_value, 32
TMS320C6x Assembler PC v7.4.18 Tue Jan 02 08:53:48 2018

Tools Copyright (c) 1996-2015 Texas Instruments Incorporated
C:\Users\Pc\AppData\Local\Temp\0378410                               PAGE   36

    1926                            .dwcfi  undefined, 33
    1927                            .dwcfi  undefined, 34
    1928                            .dwcfi  undefined, 35
    1929                            .dwcfi  undefined, 36
    1930                            .dwcfi  undefined, 37
    1931                            .dwcfi  undefined, 38
    1932                            .dwcfi  undefined, 39
    1933                            .dwcfi  undefined, 40
    1934                            .dwcfi  undefined, 41
    1935                            .dwcfi  undefined, 42
    1936                            .dwcfi  undefined, 43
    1937                            .dwcfi  undefined, 44
    1938                            .dwcfi  undefined, 45
    1939                            .dwcfi  undefined, 46
    1940                            .dwcfi  undefined, 47
    1941                            .dwcfi  undefined, 48
    1942                            .dwcfi  undefined, 49
    1943                            .dwcfi  undefined, 50
    1944                            .dwcfi  undefined, 51
    1945                            .dwcfi  undefined, 52
    1946                            .dwcfi  undefined, 53
    1947                            .dwcfi  undefined, 54
    1948                            .dwcfi  undefined, 55
    1949                            .dwcfi  undefined, 56
    1950                            .dwcfi  undefined, 57
    1951                            .dwcfi  undefined, 58
    1952                            .dwcfi  undefined, 59
    1953                            .dwcfi  undefined, 60
    1954                            .dwcfi  undefined, 61
    1955                            .dwcfi  undefined, 62
    1956                            .dwcfi  undefined, 63
    1957                            .dwcfi  undefined, 64
    1958                            .dwcfi  undefined, 65
    1959                            .dwcfi  undefined, 66
    1960                            .dwcfi  undefined, 67
    1961                            .dwcfi  undefined, 68
    1962                            .dwcfi  undefined, 69
    1963                            .dwcfi  undefined, 70
    1964                            .dwcfi  undefined, 71
    1965                            .dwcfi  undefined, 72
    1966                            .dwcfi  undefined, 73
    1967                            .dwcfi  undefined, 74
    1968                            .dwcfi  undefined, 75
    1969                            .dwcfi  undefined, 76
    1970                            .dwcfi  undefined, 77
    1971                            .dwcfi  undefined, 78
    1972                            .dwcfi  undefined, 79
    1973                            .dwcfi  undefined, 80
    1974                            .dwcfi  undefined, 81
    1975                            .dwcfi  undefined, 82
    1976                            .dwcfi  undefined, 83
    1977                            .dwcfi  undefined, 84
    1978                            .dwcfi  undefined, 85
    1979                            .dwcfi  undefined, 86
    1980                            .dwcfi  undefined, 87
TMS320C6x Assembler PC v7.4.18 Tue Jan 02 08:53:48 2018

Tools Copyright (c) 1996-2015 Texas Instruments Incorporated
C:\Users\Pc\AppData\Local\Temp\0378410                               PAGE   37

    1981                            .dwcfi  undefined, 88
    1982                            .dwcfi  undefined, 89
    1983                            .dwcfi  undefined, 90
    1984                            .dwcfi  undefined, 91
    1985                            .dwcfi  undefined, 92
    1986                            .dwcfi  undefined, 93
    1987                            .dwcfi  undefined, 94
    1988                            .dwcfi  undefined, 95
    1989                            .dwcfi  undefined, 96
    1990                            .dwcfi  undefined, 97
    1991                            .dwcfi  undefined, 98
    1992                            .dwcfi  undefined, 99
    1993                            .dwcfi  undefined, 100
    1994                            .dwcfi  undefined, 101
    1995                            .dwcfi  undefined, 102
    1996                            .dwcfi  undefined, 103
    1997                            .dwcfi  undefined, 104
    1998                            .dwcfi  undefined, 105
    1999                            .dwcfi  undefined, 106
    2000                            .dwcfi  undefined, 107
    2001                            .dwcfi  undefined, 108
    2002                            .dwcfi  undefined, 109
    2003                            .dwcfi  undefined, 110
    2004                            .dwcfi  undefined, 111
    2005                            .dwcfi  undefined, 112
    2006                            .dwcfi  undefined, 113
    2007                            .dwcfi  undefined, 114
    2008                            .dwcfi  undefined, 115
    2009                            .dwcfi  undefined, 116
    2010                            .dwcfi  undefined, 117
    2011                            .dwcfi  undefined, 118
    2012                            .dwcfi  undefined, 119
    2013                            .dwcfi  undefined, 120
    2014                            .dwcfi  undefined, 121
    2015                            .dwcfi  undefined, 122
    2016                            .dwcfi  undefined, 123
    2017                            .dwcfi  undefined, 124
    2018                            .dwcfi  undefined, 125
    2019                            .dwcfi  undefined, 126
    2020                            .dwcfi  undefined, 127
    2021                            .dwcfi  undefined, 128
    2022                            .dwcfi  undefined, 129
    2023                            .dwcfi  undefined, 130
    2024                            .dwcfi  undefined, 131
    2025                            .dwcfi  undefined, 132
    2026                            .dwcfi  undefined, 133
    2027                            .dwcfi  undefined, 134
    2028                            .dwcfi  undefined, 135
    2029                            .dwcfi  undefined, 136
    2030                            .dwcfi  undefined, 137
    2031                            .dwcfi  undefined, 138
    2032                            .dwcfi  undefined, 139
    2033                            .dwcfi  undefined, 140
    2034                            .dwcfi  undefined, 141
    2035                            .dwcfi  undefined, 142
TMS320C6x Assembler PC v7.4.18 Tue Jan 02 08:53:48 2018

Tools Copyright (c) 1996-2015 Texas Instruments Incorporated
C:\Users\Pc\AppData\Local\Temp\0378410                               PAGE   38

    2036                            .dwcfi  undefined, 143
    2037                            .dwcfi  undefined, 144
    2038                            .dwcfi  undefined, 145
    2039                            .dwcfi  undefined, 146
    2040                            .dwcfi  undefined, 147
    2041                            .dwcfi  undefined, 148
    2042                            .dwcfi  undefined, 149
    2043                            .dwcfi  undefined, 150
    2044                            .dwcfi  undefined, 151
    2045                            .dwcfi  undefined, 152
    2046                            .dwcfi  undefined, 153
    2047                            .dwcfi  undefined, 154
    2048                            .dwcfi  undefined, 155
    2049                            .dwcfi  undefined, 156
    2050                            .dwcfi  undefined, 157
    2051                            .dwcfi  undefined, 158
    2052                            .dwcfi  undefined, 159
    2053                            .dwcfi  undefined, 160
    2054                            .dwcfi  undefined, 161
    2055                            .dwcfi  undefined, 162
    2056                            .dwcfi  undefined, 163
    2057                            .dwcfi  undefined, 164
    2058                            .dwcfi  undefined, 165
    2059                            .dwcfi  undefined, 166
    2060                            .dwcfi  undefined, 167
    2061                            .dwcfi  undefined, 168
    2062                            .dwcfi  undefined, 169
    2063                            .dwcfi  undefined, 170
    2064                            .dwcfi  undefined, 171
    2065                            .dwcfi  undefined, 172
    2066                            .dwcfi  undefined, 173
    2067                            .dwcfi  undefined, 174
    2068                            .dwcfi  undefined, 175
    2069                            .dwcfi  undefined, 176
    2070                            .dwcfi  undefined, 177
    2071                            .dwcfi  undefined, 178
    2072                            .dwcfi  undefined, 179
    2073                            .dwcfi  undefined, 180
    2074                            .dwcfi  undefined, 181
    2075                            .dwcfi  undefined, 182
    2076                            .dwcfi  undefined, 183
    2077                            .dwcfi  undefined, 184
    2078                            .dwcfi  undefined, 185
    2079                            .dwcfi  undefined, 186
    2080                            .dwcfi  undefined, 187
    2081                            .dwcfi  undefined, 188
    2082                            .dwcfi  undefined, 189
    2083                            .dwcfi  undefined, 190
    2084                            .dwcfi  undefined, 191
    2085                            .dwcfi  undefined, 192
    2086                            .dwcfi  undefined, 193
    2087                            .dwcfi  undefined, 194
    2088                            .dwcfi  undefined, 195
    2089                            .dwcfi  undefined, 196
    2090                            .dwcfi  undefined, 197
TMS320C6x Assembler PC v7.4.18 Tue Jan 02 08:53:48 2018

Tools Copyright (c) 1996-2015 Texas Instruments Incorporated
C:\Users\Pc\AppData\Local\Temp\0378410                               PAGE   39

    2091                            .dwcfi  undefined, 198
    2092                            .dwcfi  undefined, 199
    2093                            .dwcfi  undefined, 200
    2094                            .dwcfi  undefined, 201
    2095                            .dwcfi  undefined, 202
    2096                            .dwcfi  undefined, 203
    2097                            .dwcfi  undefined, 204
    2098                            .dwcfi  undefined, 205
    2099                            .dwcfi  undefined, 206
    2100                            .dwcfi  undefined, 207
    2101                            .dwcfi  undefined, 208
    2102                            .dwcfi  undefined, 209
    2103                            .dwcfi  undefined, 210
    2104                            .dwcfi  undefined, 211
    2105                            .dwcfi  undefined, 212
    2106                            .dwcfi  undefined, 213
    2107                            .dwcfi  undefined, 214
    2108                            .dwcfi  undefined, 215
    2109                            .dwcfi  undefined, 216
    2110                            .dwcfi  undefined, 217
    2111                            .dwcfi  undefined, 218
    2112                            .dwcfi  undefined, 219
    2113                            .dwcfi  undefined, 220
    2114                            .dwcfi  undefined, 221
    2115                            .dwcfi  undefined, 222
    2116                            .dwcfi  undefined, 223
    2117                            .dwcfi  undefined, 224
    2118                            .dwcfi  undefined, 225
    2119                            .dwcfi  undefined, 226
    2120                            .dwcfi  undefined, 227
    2121                            .dwcfi  undefined, 228
    2122                            .dwendentry
    2123                    
    2124                    ;***************************************************************
    2125                    ;* DWARF REGISTER MAP                                          *
    2126                    ;***************************************************************
    2127                    
    2128                    $C$DW$100       .dwtag  DW_TAG_TI_assign_register, DW_AT_name("A0")
    2129                            .dwattr $C$DW$100, DW_AT_location[DW_OP_reg0]
    2130                    $C$DW$101       .dwtag  DW_TAG_TI_assign_register, DW_AT_name("A1")
    2131                            .dwattr $C$DW$101, DW_AT_location[DW_OP_reg1]
    2132                    $C$DW$102       .dwtag  DW_TAG_TI_assign_register, DW_AT_name("A2")
    2133                            .dwattr $C$DW$102, DW_AT_location[DW_OP_reg2]
    2134                    $C$DW$103       .dwtag  DW_TAG_TI_assign_register, DW_AT_name("A3")
    2135                            .dwattr $C$DW$103, DW_AT_location[DW_OP_reg3]
    2136                    $C$DW$104       .dwtag  DW_TAG_TI_assign_register, DW_AT_name("A4")
    2137                            .dwattr $C$DW$104, DW_AT_location[DW_OP_reg4]
    2138                    $C$DW$105       .dwtag  DW_TAG_TI_assign_register, DW_AT_name("A5")
    2139                            .dwattr $C$DW$105, DW_AT_location[DW_OP_reg5]
    2140                    $C$DW$106       .dwtag  DW_TAG_TI_assign_register, DW_AT_name("A6")
    2141                            .dwattr $C$DW$106, DW_AT_location[DW_OP_reg6]
    2142                    $C$DW$107       .dwtag  DW_TAG_TI_assign_register, DW_AT_name("A7")
    2143                            .dwattr $C$DW$107, DW_AT_location[DW_OP_reg7]
    2144                    $C$DW$108       .dwtag  DW_TAG_TI_assign_register, DW_AT_name("A8")
    2145                            .dwattr $C$DW$108, DW_AT_location[DW_OP_reg8]
TMS320C6x Assembler PC v7.4.18 Tue Jan 02 08:53:48 2018

Tools Copyright (c) 1996-2015 Texas Instruments Incorporated
C:\Users\Pc\AppData\Local\Temp\0378410                               PAGE   40

    2146                    $C$DW$109       .dwtag  DW_TAG_TI_assign_register, DW_AT_name("A9")
    2147                            .dwattr $C$DW$109, DW_AT_location[DW_OP_reg9]
    2148                    $C$DW$110       .dwtag  DW_TAG_TI_assign_register, DW_AT_name("A10")
    2149                            .dwattr $C$DW$110, DW_AT_location[DW_OP_reg10]
    2150                    $C$DW$111       .dwtag  DW_TAG_TI_assign_register, DW_AT_name("A11")
    2151                            .dwattr $C$DW$111, DW_AT_location[DW_OP_reg11]
    2152                    $C$DW$112       .dwtag  DW_TAG_TI_assign_register, DW_AT_name("A12")
    2153                            .dwattr $C$DW$112, DW_AT_location[DW_OP_reg12]
    2154                    $C$DW$113       .dwtag  DW_TAG_TI_assign_register, DW_AT_name("A13")
    2155                            .dwattr $C$DW$113, DW_AT_location[DW_OP_reg13]
    2156                    $C$DW$114       .dwtag  DW_TAG_TI_assign_register, DW_AT_name("A14")
    2157                            .dwattr $C$DW$114, DW_AT_location[DW_OP_reg14]
    2158                    $C$DW$115       .dwtag  DW_TAG_TI_assign_register, DW_AT_name("A15")
    2159                            .dwattr $C$DW$115, DW_AT_location[DW_OP_reg15]
    2160                    $C$DW$116       .dwtag  DW_TAG_TI_assign_register, DW_AT_name("B0")
    2161                            .dwattr $C$DW$116, DW_AT_location[DW_OP_reg16]
    2162                    $C$DW$117       .dwtag  DW_TAG_TI_assign_register, DW_AT_name("B1")
    2163                            .dwattr $C$DW$117, DW_AT_location[DW_OP_reg17]
    2164                    $C$DW$118       .dwtag  DW_TAG_TI_assign_register, DW_AT_name("B2")
    2165                            .dwattr $C$DW$118, DW_AT_location[DW_OP_reg18]
    2166                    $C$DW$119       .dwtag  DW_TAG_TI_assign_register, DW_AT_name("B3")
    2167                            .dwattr $C$DW$119, DW_AT_location[DW_OP_reg19]
    2168                    $C$DW$120       .dwtag  DW_TAG_TI_assign_register, DW_AT_name("B4")
    2169                            .dwattr $C$DW$120, DW_AT_location[DW_OP_reg20]
    2170                    $C$DW$121       .dwtag  DW_TAG_TI_assign_register, DW_AT_name("B5")
    2171                            .dwattr $C$DW$121, DW_AT_location[DW_OP_reg21]
    2172                    $C$DW$122       .dwtag  DW_TAG_TI_assign_register, DW_AT_name("B6")
    2173                            .dwattr $C$DW$122, DW_AT_location[DW_OP_reg22]
    2174                    $C$DW$123       .dwtag  DW_TAG_TI_assign_register, DW_AT_name("B7")
    2175                            .dwattr $C$DW$123, DW_AT_location[DW_OP_reg23]
    2176                    $C$DW$124       .dwtag  DW_TAG_TI_assign_register, DW_AT_name("B8")
    2177                            .dwattr $C$DW$124, DW_AT_location[DW_OP_reg24]
    2178                    $C$DW$125       .dwtag  DW_TAG_TI_assign_register, DW_AT_name("B9")
    2179                            .dwattr $C$DW$125, DW_AT_location[DW_OP_reg25]
    2180                    $C$DW$126       .dwtag  DW_TAG_TI_assign_register, DW_AT_name("B10")
    2181                            .dwattr $C$DW$126, DW_AT_location[DW_OP_reg26]
    2182                    $C$DW$127       .dwtag  DW_TAG_TI_assign_register, DW_AT_name("B11")
    2183                            .dwattr $C$DW$127, DW_AT_location[DW_OP_reg27]
    2184                    $C$DW$128       .dwtag  DW_TAG_TI_assign_register, DW_AT_name("B12")
    2185                            .dwattr $C$DW$128, DW_AT_location[DW_OP_reg28]
    2186                    $C$DW$129       .dwtag  DW_TAG_TI_assign_register, DW_AT_name("B13")
    2187                            .dwattr $C$DW$129, DW_AT_location[DW_OP_reg29]
    2188                    $C$DW$130       .dwtag  DW_TAG_TI_assign_register, DW_AT_name("DP")
    2189                            .dwattr $C$DW$130, DW_AT_location[DW_OP_reg30]
    2190                    $C$DW$131       .dwtag  DW_TAG_TI_assign_register, DW_AT_name("SP")
    2191                            .dwattr $C$DW$131, DW_AT_location[DW_OP_reg31]
    2192                    $C$DW$132       .dwtag  DW_TAG_TI_assign_register, DW_AT_name("FP")
    2193                            .dwattr $C$DW$132, DW_AT_location[DW_OP_regx 0x20]
    2194                    $C$DW$133       .dwtag  DW_TAG_TI_assign_register, DW_AT_name("PC")
    2195                            .dwattr $C$DW$133, DW_AT_location[DW_OP_regx 0x21]
    2196                    $C$DW$134       .dwtag  DW_TAG_TI_assign_register, DW_AT_name("IRP")
    2197                            .dwattr $C$DW$134, DW_AT_location[DW_OP_regx 0x22]
    2198                    $C$DW$135       .dwtag  DW_TAG_TI_assign_register, DW_AT_name("IFR")
    2199                            .dwattr $C$DW$135, DW_AT_location[DW_OP_regx 0x23]
    2200                    $C$DW$136       .dwtag  DW_TAG_TI_assign_register, DW_AT_name("NRP")
TMS320C6x Assembler PC v7.4.18 Tue Jan 02 08:53:48 2018

Tools Copyright (c) 1996-2015 Texas Instruments Incorporated
C:\Users\Pc\AppData\Local\Temp\0378410                               PAGE   41

    2201                            .dwattr $C$DW$136, DW_AT_location[DW_OP_regx 0x24]
    2202                    $C$DW$137       .dwtag  DW_TAG_TI_assign_register, DW_AT_name("A16")
    2203                            .dwattr $C$DW$137, DW_AT_location[DW_OP_regx 0x25]
    2204                    $C$DW$138       .dwtag  DW_TAG_TI_assign_register, DW_AT_name("A17")
    2205                            .dwattr $C$DW$138, DW_AT_location[DW_OP_regx 0x26]
    2206                    $C$DW$139       .dwtag  DW_TAG_TI_assign_register, DW_AT_name("A18")
    2207                            .dwattr $C$DW$139, DW_AT_location[DW_OP_regx 0x27]
    2208                    $C$DW$140       .dwtag  DW_TAG_TI_assign_register, DW_AT_name("A19")
    2209                            .dwattr $C$DW$140, DW_AT_location[DW_OP_regx 0x28]
    2210                    $C$DW$141       .dwtag  DW_TAG_TI_assign_register, DW_AT_name("A20")
    2211                            .dwattr $C$DW$141, DW_AT_location[DW_OP_regx 0x29]
    2212                    $C$DW$142       .dwtag  DW_TAG_TI_assign_register, DW_AT_name("A21")
    2213                            .dwattr $C$DW$142, DW_AT_location[DW_OP_regx 0x2a]
    2214                    $C$DW$143       .dwtag  DW_TAG_TI_assign_register, DW_AT_name("A22")
    2215                            .dwattr $C$DW$143, DW_AT_location[DW_OP_regx 0x2b]
    2216                    $C$DW$144       .dwtag  DW_TAG_TI_assign_register, DW_AT_name("A23")
    2217                            .dwattr $C$DW$144, DW_AT_location[DW_OP_regx 0x2c]
    2218                    $C$DW$145       .dwtag  DW_TAG_TI_assign_register, DW_AT_name("A24")
    2219                            .dwattr $C$DW$145, DW_AT_location[DW_OP_regx 0x2d]
    2220                    $C$DW$146       .dwtag  DW_TAG_TI_assign_register, DW_AT_name("A25")
    2221                            .dwattr $C$DW$146, DW_AT_location[DW_OP_regx 0x2e]
    2222                    $C$DW$147       .dwtag  DW_TAG_TI_assign_register, DW_AT_name("A26")
    2223                            .dwattr $C$DW$147, DW_AT_location[DW_OP_regx 0x2f]
    2224                    $C$DW$148       .dwtag  DW_TAG_TI_assign_register, DW_AT_name("A27")
    2225                            .dwattr $C$DW$148, DW_AT_location[DW_OP_regx 0x30]
    2226                    $C$DW$149       .dwtag  DW_TAG_TI_assign_register, DW_AT_name("A28")
    2227                            .dwattr $C$DW$149, DW_AT_location[DW_OP_regx 0x31]
    2228                    $C$DW$150       .dwtag  DW_TAG_TI_assign_register, DW_AT_name("A29")
    2229                            .dwattr $C$DW$150, DW_AT_location[DW_OP_regx 0x32]
    2230                    $C$DW$151       .dwtag  DW_TAG_TI_assign_register, DW_AT_name("A30")
    2231                            .dwattr $C$DW$151, DW_AT_location[DW_OP_regx 0x33]
    2232                    $C$DW$152       .dwtag  DW_TAG_TI_assign_register, DW_AT_name("A31")
    2233                            .dwattr $C$DW$152, DW_AT_location[DW_OP_regx 0x34]
    2234                    $C$DW$153       .dwtag  DW_TAG_TI_assign_register, DW_AT_name("B16")
    2235                            .dwattr $C$DW$153, DW_AT_location[DW_OP_regx 0x35]
    2236                    $C$DW$154       .dwtag  DW_TAG_TI_assign_register, DW_AT_name("B17")
    2237                            .dwattr $C$DW$154, DW_AT_location[DW_OP_regx 0x36]
    2238                    $C$DW$155       .dwtag  DW_TAG_TI_assign_register, DW_AT_name("B18")
    2239                            .dwattr $C$DW$155, DW_AT_location[DW_OP_regx 0x37]
    2240                    $C$DW$156       .dwtag  DW_TAG_TI_assign_register, DW_AT_name("B19")
    2241                            .dwattr $C$DW$156, DW_AT_location[DW_OP_regx 0x38]
    2242                    $C$DW$157       .dwtag  DW_TAG_TI_assign_register, DW_AT_name("B20")
    2243                            .dwattr $C$DW$157, DW_AT_location[DW_OP_regx 0x39]
    2244                    $C$DW$158       .dwtag  DW_TAG_TI_assign_register, DW_AT_name("B21")
    2245                            .dwattr $C$DW$158, DW_AT_location[DW_OP_regx 0x3a]
    2246                    $C$DW$159       .dwtag  DW_TAG_TI_assign_register, DW_AT_name("B22")
    2247                            .dwattr $C$DW$159, DW_AT_location[DW_OP_regx 0x3b]
    2248                    $C$DW$160       .dwtag  DW_TAG_TI_assign_register, DW_AT_name("B23")
    2249                            .dwattr $C$DW$160, DW_AT_location[DW_OP_regx 0x3c]
    2250                    $C$DW$161       .dwtag  DW_TAG_TI_assign_register, DW_AT_name("B24")
    2251                            .dwattr $C$DW$161, DW_AT_location[DW_OP_regx 0x3d]
    2252                    $C$DW$162       .dwtag  DW_TAG_TI_assign_register, DW_AT_name("B25")
    2253                            .dwattr $C$DW$162, DW_AT_location[DW_OP_regx 0x3e]
    2254                    $C$DW$163       .dwtag  DW_TAG_TI_assign_register, DW_AT_name("B26")
    2255                            .dwattr $C$DW$163, DW_AT_location[DW_OP_regx 0x3f]
TMS320C6x Assembler PC v7.4.18 Tue Jan 02 08:53:48 2018

Tools Copyright (c) 1996-2015 Texas Instruments Incorporated
C:\Users\Pc\AppData\Local\Temp\0378410                               PAGE   42

    2256                    $C$DW$164       .dwtag  DW_TAG_TI_assign_register, DW_AT_name("B27")
    2257                            .dwattr $C$DW$164, DW_AT_location[DW_OP_regx 0x40]
    2258                    $C$DW$165       .dwtag  DW_TAG_TI_assign_register, DW_AT_name("B28")
    2259                            .dwattr $C$DW$165, DW_AT_location[DW_OP_regx 0x41]
    2260                    $C$DW$166       .dwtag  DW_TAG_TI_assign_register, DW_AT_name("B29")
    2261                            .dwattr $C$DW$166, DW_AT_location[DW_OP_regx 0x42]
    2262                    $C$DW$167       .dwtag  DW_TAG_TI_assign_register, DW_AT_name("B30")
    2263                            .dwattr $C$DW$167, DW_AT_location[DW_OP_regx 0x43]
    2264                    $C$DW$168       .dwtag  DW_TAG_TI_assign_register, DW_AT_name("B31")
    2265                            .dwattr $C$DW$168, DW_AT_location[DW_OP_regx 0x44]
    2266                    $C$DW$169       .dwtag  DW_TAG_TI_assign_register, DW_AT_name("AMR")
    2267                            .dwattr $C$DW$169, DW_AT_location[DW_OP_regx 0x45]
    2268                    $C$DW$170       .dwtag  DW_TAG_TI_assign_register, DW_AT_name("CSR")
    2269                            .dwattr $C$DW$170, DW_AT_location[DW_OP_regx 0x46]
    2270                    $C$DW$171       .dwtag  DW_TAG_TI_assign_register, DW_AT_name("ISR")
    2271                            .dwattr $C$DW$171, DW_AT_location[DW_OP_regx 0x47]
    2272                    $C$DW$172       .dwtag  DW_TAG_TI_assign_register, DW_AT_name("ICR")
    2273                            .dwattr $C$DW$172, DW_AT_location[DW_OP_regx 0x48]
    2274                    $C$DW$173       .dwtag  DW_TAG_TI_assign_register, DW_AT_name("IER")
    2275                            .dwattr $C$DW$173, DW_AT_location[DW_OP_regx 0x49]
    2276                    $C$DW$174       .dwtag  DW_TAG_TI_assign_register, DW_AT_name("ISTP")
    2277                            .dwattr $C$DW$174, DW_AT_location[DW_OP_regx 0x4a]
    2278                    $C$DW$175       .dwtag  DW_TAG_TI_assign_register, DW_AT_name("IN")
    2279                            .dwattr $C$DW$175, DW_AT_location[DW_OP_regx 0x4b]
    2280                    $C$DW$176       .dwtag  DW_TAG_TI_assign_register, DW_AT_name("OUT")
    2281                            .dwattr $C$DW$176, DW_AT_location[DW_OP_regx 0x4c]
    2282                    $C$DW$177       .dwtag  DW_TAG_TI_assign_register, DW_AT_name("ACR")
    2283                            .dwattr $C$DW$177, DW_AT_location[DW_OP_regx 0x4d]
    2284                    $C$DW$178       .dwtag  DW_TAG_TI_assign_register, DW_AT_name("ADR")
    2285                            .dwattr $C$DW$178, DW_AT_location[DW_OP_regx 0x4e]
    2286                    $C$DW$179       .dwtag  DW_TAG_TI_assign_register, DW_AT_name("FADCR")
    2287                            .dwattr $C$DW$179, DW_AT_location[DW_OP_regx 0x4f]
    2288                    $C$DW$180       .dwtag  DW_TAG_TI_assign_register, DW_AT_name("FAUCR")
    2289                            .dwattr $C$DW$180, DW_AT_location[DW_OP_regx 0x50]
    2290                    $C$DW$181       .dwtag  DW_TAG_TI_assign_register, DW_AT_name("FMCR")
    2291                            .dwattr $C$DW$181, DW_AT_location[DW_OP_regx 0x51]
    2292                    $C$DW$182       .dwtag  DW_TAG_TI_assign_register, DW_AT_name("GFPGFR")
    2293                            .dwattr $C$DW$182, DW_AT_location[DW_OP_regx 0x52]
    2294                    $C$DW$183       .dwtag  DW_TAG_TI_assign_register, DW_AT_name("DIER")
    2295                            .dwattr $C$DW$183, DW_AT_location[DW_OP_regx 0x53]
    2296                    $C$DW$184       .dwtag  DW_TAG_TI_assign_register, DW_AT_name("REP")
    2297                            .dwattr $C$DW$184, DW_AT_location[DW_OP_regx 0x54]
    2298                    $C$DW$185       .dwtag  DW_TAG_TI_assign_register, DW_AT_name("TSCL")
    2299                            .dwattr $C$DW$185, DW_AT_location[DW_OP_regx 0x55]
    2300                    $C$DW$186       .dwtag  DW_TAG_TI_assign_register, DW_AT_name("TSCH")
    2301                            .dwattr $C$DW$186, DW_AT_location[DW_OP_regx 0x56]
    2302                    $C$DW$187       .dwtag  DW_TAG_TI_assign_register, DW_AT_name("ARP")
    2303                            .dwattr $C$DW$187, DW_AT_location[DW_OP_regx 0x57]
    2304                    $C$DW$188       .dwtag  DW_TAG_TI_assign_register, DW_AT_name("ILC")
    2305                            .dwattr $C$DW$188, DW_AT_location[DW_OP_regx 0x58]
    2306                    $C$DW$189       .dwtag  DW_TAG_TI_assign_register, DW_AT_name("RILC")
    2307                            .dwattr $C$DW$189, DW_AT_location[DW_OP_regx 0x59]
    2308                    $C$DW$190       .dwtag  DW_TAG_TI_assign_register, DW_AT_name("DNUM")
    2309                            .dwattr $C$DW$190, DW_AT_location[DW_OP_regx 0x5a]
    2310                    $C$DW$191       .dwtag  DW_TAG_TI_assign_register, DW_AT_name("SSR")
TMS320C6x Assembler PC v7.4.18 Tue Jan 02 08:53:48 2018

Tools Copyright (c) 1996-2015 Texas Instruments Incorporated
C:\Users\Pc\AppData\Local\Temp\0378410                               PAGE   43

    2311                            .dwattr $C$DW$191, DW_AT_location[DW_OP_regx 0x5b]
    2312                    $C$DW$192       .dwtag  DW_TAG_TI_assign_register, DW_AT_name("GPLYA")
    2313                            .dwattr $C$DW$192, DW_AT_location[DW_OP_regx 0x5c]
    2314                    $C$DW$193       .dwtag  DW_TAG_TI_assign_register, DW_AT_name("GPLYB")
    2315                            .dwattr $C$DW$193, DW_AT_location[DW_OP_regx 0x5d]
    2316                    $C$DW$194       .dwtag  DW_TAG_TI_assign_register, DW_AT_name("TSR")
    2317                            .dwattr $C$DW$194, DW_AT_location[DW_OP_regx 0x5e]
    2318                    $C$DW$195       .dwtag  DW_TAG_TI_assign_register, DW_AT_name("ITSR")
    2319                            .dwattr $C$DW$195, DW_AT_location[DW_OP_regx 0x5f]
    2320                    $C$DW$196       .dwtag  DW_TAG_TI_assign_register, DW_AT_name("NTSR")
    2321                            .dwattr $C$DW$196, DW_AT_location[DW_OP_regx 0x60]
    2322                    $C$DW$197       .dwtag  DW_TAG_TI_assign_register, DW_AT_name("EFR")
    2323                            .dwattr $C$DW$197, DW_AT_location[DW_OP_regx 0x61]
    2324                    $C$DW$198       .dwtag  DW_TAG_TI_assign_register, DW_AT_name("ECR")
    2325                            .dwattr $C$DW$198, DW_AT_location[DW_OP_regx 0x62]
    2326                    $C$DW$199       .dwtag  DW_TAG_TI_assign_register, DW_AT_name("IERR")
    2327                            .dwattr $C$DW$199, DW_AT_location[DW_OP_regx 0x63]
    2328                    $C$DW$200       .dwtag  DW_TAG_TI_assign_register, DW_AT_name("DMSG")
    2329                            .dwattr $C$DW$200, DW_AT_location[DW_OP_regx 0x64]
    2330                    $C$DW$201       .dwtag  DW_TAG_TI_assign_register, DW_AT_name("CMSG")
    2331                            .dwattr $C$DW$201, DW_AT_location[DW_OP_regx 0x65]
    2332                    $C$DW$202       .dwtag  DW_TAG_TI_assign_register, DW_AT_name("DT_DMA_ADDR")
    2333                            .dwattr $C$DW$202, DW_AT_location[DW_OP_regx 0x66]
    2334                    $C$DW$203       .dwtag  DW_TAG_TI_assign_register, DW_AT_name("DT_DMA_DATA")
    2335                            .dwattr $C$DW$203, DW_AT_location[DW_OP_regx 0x67]
    2336                    $C$DW$204       .dwtag  DW_TAG_TI_assign_register, DW_AT_name("DT_DMA_CNTL")
    2337                            .dwattr $C$DW$204, DW_AT_location[DW_OP_regx 0x68]
    2338                    $C$DW$205       .dwtag  DW_TAG_TI_assign_register, DW_AT_name("TCU_CNTL")
    2339                            .dwattr $C$DW$205, DW_AT_location[DW_OP_regx 0x69]
    2340                    $C$DW$206       .dwtag  DW_TAG_TI_assign_register, DW_AT_name("RTDX_REC_CNTL")
    2341                            .dwattr $C$DW$206, DW_AT_location[DW_OP_regx 0x6a]
    2342                    $C$DW$207       .dwtag  DW_TAG_TI_assign_register, DW_AT_name("RTDX_XMT_CNTL")
    2343                            .dwattr $C$DW$207, DW_AT_location[DW_OP_regx 0x6b]
    2344                    $C$DW$208       .dwtag  DW_TAG_TI_assign_register, DW_AT_name("RTDX_CFG")
    2345                            .dwattr $C$DW$208, DW_AT_location[DW_OP_regx 0x6c]
    2346                    $C$DW$209       .dwtag  DW_TAG_TI_assign_register, DW_AT_name("RTDX_RDATA")
    2347                            .dwattr $C$DW$209, DW_AT_location[DW_OP_regx 0x6d]
    2348                    $C$DW$210       .dwtag  DW_TAG_TI_assign_register, DW_AT_name("RTDX_WDATA")
    2349                            .dwattr $C$DW$210, DW_AT_location[DW_OP_regx 0x6e]
    2350                    $C$DW$211       .dwtag  DW_TAG_TI_assign_register, DW_AT_name("RTDX_RADDR")
    2351                            .dwattr $C$DW$211, DW_AT_location[DW_OP_regx 0x6f]
    2352                    $C$DW$212       .dwtag  DW_TAG_TI_assign_register, DW_AT_name("RTDX_WADDR")
    2353                            .dwattr $C$DW$212, DW_AT_location[DW_OP_regx 0x70]
    2354                    $C$DW$213       .dwtag  DW_TAG_TI_assign_register, DW_AT_name("MFREG0")
    2355                            .dwattr $C$DW$213, DW_AT_location[DW_OP_regx 0x71]
    2356                    $C$DW$214       .dwtag  DW_TAG_TI_assign_register, DW_AT_name("DBG_STAT")
    2357                            .dwattr $C$DW$214, DW_AT_location[DW_OP_regx 0x72]
    2358                    $C$DW$215       .dwtag  DW_TAG_TI_assign_register, DW_AT_name("BRK_EN")
    2359                            .dwattr $C$DW$215, DW_AT_location[DW_OP_regx 0x73]
    2360                    $C$DW$216       .dwtag  DW_TAG_TI_assign_register, DW_AT_name("HWBP0_CNT")
    2361                            .dwattr $C$DW$216, DW_AT_location[DW_OP_regx 0x74]
    2362                    $C$DW$217       .dwtag  DW_TAG_TI_assign_register, DW_AT_name("HWBP0")
    2363                            .dwattr $C$DW$217, DW_AT_location[DW_OP_regx 0x75]
    2364                    $C$DW$218       .dwtag  DW_TAG_TI_assign_register, DW_AT_name("HWBP1")
    2365                            .dwattr $C$DW$218, DW_AT_location[DW_OP_regx 0x76]
TMS320C6x Assembler PC v7.4.18 Tue Jan 02 08:53:48 2018

Tools Copyright (c) 1996-2015 Texas Instruments Incorporated
C:\Users\Pc\AppData\Local\Temp\0378410                               PAGE   44

    2366                    $C$DW$219       .dwtag  DW_TAG_TI_assign_register, DW_AT_name("HWBP2")
    2367                            .dwattr $C$DW$219, DW_AT_location[DW_OP_regx 0x77]
    2368                    $C$DW$220       .dwtag  DW_TAG_TI_assign_register, DW_AT_name("HWBP3")
    2369                            .dwattr $C$DW$220, DW_AT_location[DW_OP_regx 0x78]
    2370                    $C$DW$221       .dwtag  DW_TAG_TI_assign_register, DW_AT_name("OVERLAY")
    2371                            .dwattr $C$DW$221, DW_AT_location[DW_OP_regx 0x79]
    2372                    $C$DW$222       .dwtag  DW_TAG_TI_assign_register, DW_AT_name("PC_PROF")
    2373                            .dwattr $C$DW$222, DW_AT_location[DW_OP_regx 0x7a]
    2374                    $C$DW$223       .dwtag  DW_TAG_TI_assign_register, DW_AT_name("ATSR")
    2375                            .dwattr $C$DW$223, DW_AT_location[DW_OP_regx 0x7b]
    2376                    $C$DW$224       .dwtag  DW_TAG_TI_assign_register, DW_AT_name("TRR")
    2377                            .dwattr $C$DW$224, DW_AT_location[DW_OP_regx 0x7c]
    2378                    $C$DW$225       .dwtag  DW_TAG_TI_assign_register, DW_AT_name("TCRR")
    2379                            .dwattr $C$DW$225, DW_AT_location[DW_OP_regx 0x7d]
    2380                    $C$DW$226       .dwtag  DW_TAG_TI_assign_register, DW_AT_name("DESR")
    2381                            .dwattr $C$DW$226, DW_AT_location[DW_OP_regx 0x7e]
    2382                    $C$DW$227       .dwtag  DW_TAG_TI_assign_register, DW_AT_name("DETR")
    2383                            .dwattr $C$DW$227, DW_AT_location[DW_OP_regx 0x7f]
    2384                    $C$DW$228       .dwtag  DW_TAG_TI_assign_register, DW_AT_name("CIE_RETA")
    2385                            .dwattr $C$DW$228, DW_AT_location[DW_OP_regx 0xe4]
    2386                            .dwendtag $C$DW$CU
    2387                    

No Assembly Errors, No Assembly Warnings
